(dp0
S'test'
p1
(lp2
(lp3
S'med'
p4
aS'high'
p5
aS'4'
p6
ag6
aS'big'
p7
aS'low'
p8
aS'unacc'
p9
aa(lp10
S'med'
p11
aS'high'
p12
ag6
aS'more'
p13
aS'small'
p14
aS'low'
p15
aS'unacc'
p16
aa(lp17
S'med'
p18
aS'high'
p19
ag6
aS'more'
p20
aS'small'
p21
aS'med'
p22
aS'unacc'
p23
aa(lp24
S'med'
p25
aS'high'
p26
ag6
aS'more'
p27
aS'med'
p28
aS'low'
p29
aS'unacc'
p30
aa(lp31
S'med'
p32
aS'high'
p33
ag6
aS'more'
p34
aS'big'
p35
aS'low'
p36
aS'unacc'
p37
aa(lp38
S'med'
p39
aS'high'
p40
aS'5more'
p41
aS'2'
p42
aS'small'
p43
aS'low'
p44
aS'unacc'
p45
aa(lp46
S'med'
p47
aS'high'
p48
aS'5more'
p49
ag42
aS'small'
p50
aS'med'
p51
aS'unacc'
p52
aa(lp53
S'med'
p54
aS'high'
p55
aS'5more'
p56
ag42
aS'small'
p57
aS'high'
p58
aS'unacc'
p59
aa(lp60
S'med'
p61
aS'high'
p62
aS'5more'
p63
ag42
aS'med'
p64
aS'low'
p65
aS'unacc'
p66
aa(lp67
S'med'
p68
aS'high'
p69
aS'5more'
p70
ag42
aS'med'
p71
aS'med'
p72
aS'unacc'
p73
aa(lp74
S'med'
p75
aS'high'
p76
aS'5more'
p77
ag42
aS'med'
p78
aS'high'
p79
aS'unacc'
p80
aa(lp81
S'med'
p82
aS'high'
p83
aS'5more'
p84
ag42
aS'big'
p85
aS'low'
p86
aS'unacc'
p87
aa(lp88
S'med'
p89
aS'high'
p90
aS'5more'
p91
ag42
aS'big'
p92
aS'med'
p93
aS'unacc'
p94
aa(lp95
S'med'
p96
aS'high'
p97
aS'5more'
p98
ag42
aS'big'
p99
aS'high'
p100
aS'unacc'
p101
aa(lp102
S'med'
p103
aS'high'
p104
aS'5more'
p105
ag6
aS'small'
p106
aS'low'
p107
aS'unacc'
p108
aa(lp109
S'med'
p110
aS'high'
p111
aS'5more'
p112
ag6
aS'small'
p113
aS'med'
p114
aS'unacc'
p115
aa(lp116
S'med'
p117
aS'high'
p118
aS'5more'
p119
ag6
aS'med'
p120
aS'low'
p121
aS'unacc'
p122
aa(lp123
S'med'
p124
aS'high'
p125
aS'5more'
p126
ag6
aS'big'
p127
aS'low'
p128
aS'unacc'
p129
aa(lp130
S'med'
p131
aS'high'
p132
aS'5more'
p133
aS'more'
p134
aS'small'
p135
aS'low'
p136
aS'unacc'
p137
aa(lp138
S'med'
p139
aS'high'
p140
aS'5more'
p141
aS'more'
p142
aS'small'
p143
aS'med'
p144
aS'unacc'
p145
aa(lp146
S'med'
p147
aS'high'
p148
aS'5more'
p149
aS'more'
p150
aS'med'
p151
aS'low'
p152
aS'unacc'
p153
aa(lp154
S'med'
p155
aS'high'
p156
aS'5more'
p157
aS'more'
p158
aS'big'
p159
aS'low'
p160
aS'unacc'
p161
aa(lp162
S'med'
p163
aS'med'
p164
ag42
ag42
aS'small'
p165
aS'low'
p166
aS'unacc'
p167
aa(lp168
S'med'
p169
aS'med'
p170
ag42
ag42
aS'small'
p171
aS'med'
p172
aS'unacc'
p173
aa(lp174
S'med'
p175
aS'med'
p176
ag42
ag42
aS'small'
p177
aS'high'
p178
aS'unacc'
p179
aa(lp180
S'med'
p181
aS'med'
p182
ag42
ag42
aS'med'
p183
aS'low'
p184
aS'unacc'
p185
aa(lp186
S'med'
p187
aS'med'
p188
ag42
ag42
aS'med'
p189
aS'med'
p190
aS'unacc'
p191
aa(lp192
S'med'
p193
aS'med'
p194
ag42
ag42
aS'med'
p195
aS'high'
p196
aS'unacc'
p197
aa(lp198
S'med'
p199
aS'med'
p200
ag42
ag42
aS'big'
p201
aS'low'
p202
aS'unacc'
p203
aa(lp204
S'med'
p205
aS'med'
p206
ag42
ag42
aS'big'
p207
aS'med'
p208
aS'unacc'
p209
aa(lp210
S'med'
p211
aS'med'
p212
ag42
ag42
aS'big'
p213
aS'high'
p214
aS'unacc'
p215
aa(lp216
S'med'
p217
aS'med'
p218
ag42
ag6
aS'small'
p219
aS'low'
p220
aS'unacc'
p221
aa(lp222
S'med'
p223
aS'med'
p224
ag42
ag6
aS'med'
p225
aS'low'
p226
aS'unacc'
p227
aa(lp228
S'med'
p229
aS'med'
p230
ag42
ag6
aS'big'
p231
aS'low'
p232
aS'unacc'
p233
aa(lp234
S'med'
p235
aS'med'
p236
ag42
aS'more'
p237
aS'small'
p238
aS'low'
p239
aS'unacc'
p240
aa(lp241
S'med'
p242
aS'med'
p243
ag42
aS'more'
p244
aS'small'
p245
aS'med'
p246
aS'unacc'
p247
aa(lp248
S'med'
p249
aS'med'
p250
ag42
aS'more'
p251
aS'small'
p252
aS'high'
p253
aS'unacc'
p254
aa(lp255
S'med'
p256
aS'med'
p257
ag42
aS'more'
p258
aS'med'
p259
aS'low'
p260
aS'unacc'
p261
aa(lp262
S'med'
p263
aS'med'
p264
ag42
aS'more'
p265
aS'big'
p266
aS'low'
p267
aS'unacc'
p268
aa(lp269
S'med'
p270
aS'med'
p271
aS'3'
p272
ag42
aS'small'
p273
aS'low'
p274
aS'unacc'
p275
aa(lp276
S'med'
p277
aS'med'
p278
ag272
ag42
aS'small'
p279
aS'med'
p280
aS'unacc'
p281
aa(lp282
S'med'
p283
aS'med'
p284
ag272
ag42
aS'small'
p285
aS'high'
p286
aS'unacc'
p287
aa(lp288
S'med'
p289
aS'med'
p290
ag272
ag42
aS'med'
p291
aS'low'
p292
aS'unacc'
p293
aa(lp294
S'med'
p295
aS'med'
p296
ag272
ag42
aS'med'
p297
aS'med'
p298
aS'unacc'
p299
aa(lp300
S'med'
p301
aS'med'
p302
ag272
ag42
aS'med'
p303
aS'high'
p304
aS'unacc'
p305
aa(lp306
S'med'
p307
aS'med'
p308
ag272
ag42
aS'big'
p309
aS'low'
p310
aS'unacc'
p311
aa(lp312
S'med'
p313
aS'med'
p314
ag272
ag42
aS'big'
p315
aS'med'
p316
aS'unacc'
p317
aa(lp318
S'med'
p319
aS'med'
p320
ag272
ag42
aS'big'
p321
aS'high'
p322
aS'unacc'
p323
aa(lp324
S'med'
p325
aS'med'
p326
ag272
ag6
aS'small'
p327
aS'low'
p328
aS'unacc'
p329
aa(lp330
S'med'
p331
aS'med'
p332
ag272
ag6
aS'med'
p333
aS'low'
p334
aS'unacc'
p335
aa(lp336
S'med'
p337
aS'med'
p338
ag272
ag6
aS'big'
p339
aS'low'
p340
aS'unacc'
p341
aa(lp342
S'med'
p343
aS'med'
p344
ag272
aS'more'
p345
aS'small'
p346
aS'low'
p347
aS'unacc'
p348
aa(lp349
S'med'
p350
aS'med'
p351
ag272
aS'more'
p352
aS'med'
p353
aS'low'
p354
aS'unacc'
p355
aa(lp356
S'med'
p357
aS'med'
p358
ag272
aS'more'
p359
aS'big'
p360
aS'low'
p361
aS'unacc'
p362
aa(lp363
S'med'
p364
aS'med'
p365
ag6
ag42
aS'small'
p366
aS'low'
p367
aS'unacc'
p368
aa(lp369
S'med'
p370
aS'med'
p371
ag6
ag42
aS'small'
p372
aS'med'
p373
aS'unacc'
p374
aa(lp375
S'med'
p376
aS'med'
p377
ag6
ag42
aS'small'
p378
aS'high'
p379
aS'unacc'
p380
aa(lp381
S'med'
p382
aS'med'
p383
ag6
ag42
aS'med'
p384
aS'low'
p385
aS'unacc'
p386
aa(lp387
S'med'
p388
aS'med'
p389
ag6
ag42
aS'med'
p390
aS'med'
p391
aS'unacc'
p392
aa(lp393
S'med'
p394
aS'med'
p395
ag6
ag42
aS'med'
p396
aS'high'
p397
aS'unacc'
p398
aa(lp399
S'med'
p400
aS'med'
p401
ag6
ag42
aS'big'
p402
aS'low'
p403
aS'unacc'
p404
aa(lp405
S'med'
p406
aS'med'
p407
ag6
ag42
aS'big'
p408
aS'med'
p409
aS'unacc'
p410
aa(lp411
S'med'
p412
aS'med'
p413
ag6
ag42
aS'big'
p414
aS'high'
p415
aS'unacc'
p416
aa(lp417
S'med'
p418
aS'med'
p419
ag6
ag6
aS'small'
p420
aS'low'
p421
aS'unacc'
p422
aa(lp423
S'med'
p424
aS'med'
p425
ag6
ag6
aS'med'
p426
aS'low'
p427
aS'unacc'
p428
aa(lp429
S'med'
p430
aS'med'
p431
ag6
ag6
aS'big'
p432
aS'low'
p433
aS'unacc'
p434
aa(lp435
S'med'
p436
aS'med'
p437
ag6
aS'more'
p438
aS'small'
p439
aS'low'
p440
aS'unacc'
p441
aa(lp442
S'med'
p443
aS'med'
p444
ag6
aS'more'
p445
aS'med'
p446
aS'low'
p447
aS'unacc'
p448
aa(lp449
S'med'
p450
aS'med'
p451
ag6
aS'more'
p452
aS'big'
p453
aS'low'
p454
aS'unacc'
p455
aa(lp456
S'med'
p457
aS'med'
p458
aS'5more'
p459
ag42
aS'small'
p460
aS'low'
p461
aS'unacc'
p462
aa(lp463
S'med'
p464
aS'med'
p465
aS'5more'
p466
ag42
aS'small'
p467
aS'med'
p468
aS'unacc'
p469
aa(lp470
S'med'
p471
aS'med'
p472
aS'5more'
p473
ag42
aS'small'
p474
aS'high'
p475
aS'unacc'
p476
aa(lp477
S'med'
p478
aS'med'
p479
aS'5more'
p480
ag42
aS'med'
p481
aS'low'
p482
aS'unacc'
p483
aa(lp484
S'med'
p485
aS'med'
p486
aS'5more'
p487
ag42
aS'med'
p488
aS'med'
p489
aS'unacc'
p490
aa(lp491
S'med'
p492
aS'med'
p493
aS'5more'
p494
ag42
aS'med'
p495
aS'high'
p496
aS'unacc'
p497
aa(lp498
S'med'
p499
aS'med'
p500
aS'5more'
p501
ag42
aS'big'
p502
aS'low'
p503
aS'unacc'
p504
aa(lp505
S'med'
p506
aS'med'
p507
aS'5more'
p508
ag42
aS'big'
p509
aS'med'
p510
aS'unacc'
p511
aa(lp512
S'med'
p513
aS'med'
p514
aS'5more'
p515
ag42
aS'big'
p516
aS'high'
p517
aS'unacc'
p518
aa(lp519
S'med'
p520
aS'med'
p521
aS'5more'
p522
ag6
aS'small'
p523
aS'low'
p524
aS'unacc'
p525
aa(lp526
S'med'
p527
aS'med'
p528
aS'5more'
p529
ag6
aS'med'
p530
aS'low'
p531
aS'unacc'
p532
aa(lp533
S'med'
p534
aS'med'
p535
aS'5more'
p536
ag6
aS'big'
p537
aS'low'
p538
aS'unacc'
p539
aa(lp540
S'med'
p541
aS'med'
p542
aS'5more'
p543
aS'more'
p544
aS'small'
p545
aS'low'
p546
aS'unacc'
p547
aa(lp548
S'med'
p549
aS'med'
p550
aS'5more'
p551
aS'more'
p552
aS'med'
p553
aS'low'
p554
aS'unacc'
p555
aa(lp556
S'med'
p557
aS'med'
p558
aS'5more'
p559
aS'more'
p560
aS'big'
p561
aS'low'
p562
aS'unacc'
p563
aa(lp564
S'med'
p565
aS'low'
p566
ag42
ag42
aS'small'
p567
aS'low'
p568
aS'unacc'
p569
aa(lp570
S'med'
p571
aS'low'
p572
ag42
ag42
aS'small'
p573
aS'med'
p574
aS'unacc'
p575
aa(lp576
S'med'
p577
aS'low'
p578
ag42
ag42
aS'small'
p579
aS'high'
p580
aS'unacc'
p581
aa(lp582
S'med'
p583
aS'low'
p584
ag42
ag42
aS'med'
p585
aS'low'
p586
aS'unacc'
p587
aa(lp588
S'med'
p589
aS'low'
p590
ag42
ag42
aS'med'
p591
aS'med'
p592
aS'unacc'
p593
aa(lp594
S'med'
p595
aS'low'
p596
ag42
ag42
aS'med'
p597
aS'high'
p598
aS'unacc'
p599
aa(lp600
S'med'
p601
aS'low'
p602
ag42
ag42
aS'big'
p603
aS'low'
p604
aS'unacc'
p605
aa(lp606
S'med'
p607
aS'low'
p608
ag42
ag42
aS'big'
p609
aS'med'
p610
aS'unacc'
p611
aa(lp612
S'med'
p613
aS'low'
p614
ag42
ag42
aS'big'
p615
aS'high'
p616
aS'unacc'
p617
aa(lp618
S'med'
p619
aS'low'
p620
ag42
ag6
aS'small'
p621
aS'low'
p622
aS'unacc'
p623
aa(lp624
S'med'
p625
aS'low'
p626
ag42
ag6
aS'med'
p627
aS'low'
p628
aS'unacc'
p629
aa(lp630
S'med'
p631
aS'low'
p632
ag42
ag6
aS'big'
p633
aS'low'
p634
aS'unacc'
p635
aa(lp636
S'med'
p637
aS'low'
p638
ag42
aS'more'
p639
aS'small'
p640
aS'low'
p641
aS'unacc'
p642
aa(lp643
S'med'
p644
aS'low'
p645
ag42
aS'more'
p646
aS'small'
p647
aS'med'
p648
aS'unacc'
p649
aa(lp650
S'med'
p651
aS'low'
p652
ag42
aS'more'
p653
aS'small'
p654
aS'high'
p655
aS'unacc'
p656
aa(lp657
S'med'
p658
aS'low'
p659
ag42
aS'more'
p660
aS'med'
p661
aS'low'
p662
aS'unacc'
p663
aa(lp664
S'med'
p665
aS'low'
p666
ag42
aS'more'
p667
aS'big'
p668
aS'low'
p669
aS'unacc'
p670
aa(lp671
S'med'
p672
aS'low'
p673
ag272
ag42
aS'small'
p674
aS'low'
p675
aS'unacc'
p676
aa(lp677
S'med'
p678
aS'low'
p679
ag272
ag42
aS'small'
p680
aS'med'
p681
aS'unacc'
p682
aa(lp683
S'med'
p684
aS'low'
p685
ag272
ag42
aS'small'
p686
aS'high'
p687
aS'unacc'
p688
aa(lp689
S'med'
p690
aS'low'
p691
ag272
ag42
aS'med'
p692
aS'low'
p693
aS'unacc'
p694
aa(lp695
S'med'
p696
aS'low'
p697
ag272
ag42
aS'med'
p698
aS'med'
p699
aS'unacc'
p700
aa(lp701
S'med'
p702
aS'low'
p703
ag272
ag42
aS'med'
p704
aS'high'
p705
aS'unacc'
p706
aa(lp707
S'med'
p708
aS'low'
p709
ag272
ag42
aS'big'
p710
aS'low'
p711
aS'unacc'
p712
aa(lp713
S'med'
p714
aS'low'
p715
ag272
ag42
aS'big'
p716
aS'med'
p717
aS'unacc'
p718
aa(lp719
S'med'
p720
aS'low'
p721
ag272
ag42
aS'big'
p722
aS'high'
p723
aS'unacc'
p724
aa(lp725
S'med'
p726
aS'low'
p727
ag272
ag6
aS'small'
p728
aS'low'
p729
aS'unacc'
p730
aa(lp731
S'med'
p732
aS'low'
p733
ag272
ag6
aS'med'
p734
aS'low'
p735
aS'unacc'
p736
aa(lp737
S'med'
p738
aS'low'
p739
ag272
ag6
aS'big'
p740
aS'low'
p741
aS'unacc'
p742
aa(lp743
S'med'
p744
aS'low'
p745
ag272
aS'more'
p746
aS'small'
p747
aS'low'
p748
aS'unacc'
p749
aa(lp750
S'med'
p751
aS'low'
p752
ag272
aS'more'
p753
aS'med'
p754
aS'low'
p755
aS'unacc'
p756
aa(lp757
S'med'
p758
aS'low'
p759
ag272
aS'more'
p760
aS'big'
p761
aS'low'
p762
aS'unacc'
p763
aa(lp764
S'med'
p765
aS'low'
p766
ag6
ag42
aS'small'
p767
aS'low'
p768
aS'unacc'
p769
aa(lp770
S'med'
p771
aS'low'
p772
ag6
ag42
aS'small'
p773
aS'med'
p774
aS'unacc'
p775
aa(lp776
S'med'
p777
aS'low'
p778
ag6
ag42
aS'small'
p779
aS'high'
p780
aS'unacc'
p781
aa(lp782
S'med'
p783
aS'low'
p784
ag6
ag42
aS'med'
p785
aS'low'
p786
aS'unacc'
p787
aa(lp788
S'med'
p789
aS'low'
p790
ag6
ag42
aS'med'
p791
aS'med'
p792
aS'unacc'
p793
aa(lp794
S'med'
p795
aS'low'
p796
ag6
ag42
aS'med'
p797
aS'high'
p798
aS'unacc'
p799
aa(lp800
S'med'
p801
aS'low'
p802
ag6
ag42
aS'big'
p803
aS'low'
p804
aS'unacc'
p805
aa(lp806
S'med'
p807
aS'low'
p808
ag6
ag42
aS'big'
p809
aS'med'
p810
aS'unacc'
p811
aa(lp812
S'med'
p813
aS'low'
p814
ag6
ag42
aS'big'
p815
aS'high'
p816
aS'unacc'
p817
aa(lp818
S'med'
p819
aS'low'
p820
ag6
ag6
aS'small'
p821
aS'low'
p822
aS'unacc'
p823
aa(lp824
S'med'
p825
aS'low'
p826
ag6
ag6
aS'med'
p827
aS'low'
p828
aS'unacc'
p829
aa(lp830
S'med'
p831
aS'low'
p832
ag6
ag6
aS'big'
p833
aS'low'
p834
aS'unacc'
p835
aa(lp836
S'med'
p837
aS'low'
p838
ag6
aS'more'
p839
aS'small'
p840
aS'low'
p841
aS'unacc'
p842
aa(lp843
S'med'
p844
aS'low'
p845
ag6
aS'more'
p846
aS'med'
p847
aS'low'
p848
aS'unacc'
p849
aa(lp850
S'med'
p851
aS'low'
p852
ag6
aS'more'
p853
aS'big'
p854
aS'low'
p855
aS'unacc'
p856
aa(lp857
S'med'
p858
aS'low'
p859
aS'5more'
p860
ag42
aS'small'
p861
aS'low'
p862
aS'unacc'
p863
aa(lp864
S'med'
p865
aS'low'
p866
aS'5more'
p867
ag42
aS'small'
p868
aS'med'
p869
aS'unacc'
p870
aa(lp871
S'med'
p872
aS'low'
p873
aS'5more'
p874
ag42
aS'small'
p875
aS'high'
p876
aS'unacc'
p877
aa(lp878
S'med'
p879
aS'low'
p880
aS'5more'
p881
ag42
aS'med'
p882
aS'low'
p883
aS'unacc'
p884
aa(lp885
S'med'
p886
aS'low'
p887
aS'5more'
p888
ag42
aS'med'
p889
aS'med'
p890
aS'unacc'
p891
aa(lp892
S'med'
p893
aS'low'
p894
aS'5more'
p895
ag42
aS'med'
p896
aS'high'
p897
aS'unacc'
p898
aa(lp899
S'med'
p900
aS'low'
p901
aS'5more'
p902
ag42
aS'big'
p903
aS'low'
p904
aS'unacc'
p905
aa(lp906
S'med'
p907
aS'low'
p908
aS'5more'
p909
ag42
aS'big'
p910
aS'med'
p911
aS'unacc'
p912
aa(lp913
S'med'
p914
aS'low'
p915
aS'5more'
p916
ag42
aS'big'
p917
aS'high'
p918
aS'unacc'
p919
aa(lp920
S'med'
p921
aS'low'
p922
aS'5more'
p923
ag6
aS'small'
p924
aS'low'
p925
aS'unacc'
p926
aa(lp927
S'med'
p928
aS'low'
p929
aS'5more'
p930
ag6
aS'med'
p931
aS'low'
p932
aS'unacc'
p933
aa(lp934
S'med'
p935
aS'low'
p936
aS'5more'
p937
ag6
aS'big'
p938
aS'low'
p939
aS'unacc'
p940
aa(lp941
S'med'
p942
aS'low'
p943
aS'5more'
p944
aS'more'
p945
aS'small'
p946
aS'low'
p947
aS'unacc'
p948
aa(lp949
S'med'
p950
aS'low'
p951
aS'5more'
p952
aS'more'
p953
aS'med'
p954
aS'low'
p955
aS'unacc'
p956
aa(lp957
S'med'
p958
aS'low'
p959
aS'5more'
p960
aS'more'
p961
aS'big'
p962
aS'low'
p963
aS'unacc'
p964
aa(lp965
S'low'
p966
aS'vhigh'
p967
ag42
ag42
aS'small'
p968
aS'low'
p969
aS'unacc'
p970
aa(lp971
S'low'
p972
aS'vhigh'
p973
ag42
ag42
aS'small'
p974
aS'med'
p975
aS'unacc'
p976
aa(lp977
S'low'
p978
aS'vhigh'
p979
ag42
ag42
aS'small'
p980
aS'high'
p981
aS'unacc'
p982
aa(lp983
S'low'
p984
aS'vhigh'
p985
ag42
ag42
aS'med'
p986
aS'low'
p987
aS'unacc'
p988
aa(lp989
S'low'
p990
aS'vhigh'
p991
ag42
ag42
aS'med'
p992
aS'med'
p993
aS'unacc'
p994
aa(lp995
S'low'
p996
aS'vhigh'
p997
ag42
ag42
aS'med'
p998
aS'high'
p999
aS'unacc'
p1000
aa(lp1001
S'low'
p1002
aS'vhigh'
p1003
ag42
ag42
aS'big'
p1004
aS'low'
p1005
aS'unacc'
p1006
aa(lp1007
S'low'
p1008
aS'vhigh'
p1009
ag42
ag42
aS'big'
p1010
aS'med'
p1011
aS'unacc'
p1012
aa(lp1013
S'low'
p1014
aS'vhigh'
p1015
ag42
ag42
aS'big'
p1016
aS'high'
p1017
aS'unacc'
p1018
aa(lp1019
S'low'
p1020
aS'vhigh'
p1021
ag42
ag6
aS'small'
p1022
aS'low'
p1023
aS'unacc'
p1024
aa(lp1025
S'low'
p1026
aS'vhigh'
p1027
ag42
ag6
aS'small'
p1028
aS'med'
p1029
aS'unacc'
p1030
aa(lp1031
S'low'
p1032
aS'vhigh'
p1033
ag42
ag6
aS'med'
p1034
aS'low'
p1035
aS'unacc'
p1036
aa(lp1037
S'low'
p1038
aS'vhigh'
p1039
ag42
ag6
aS'med'
p1040
aS'med'
p1041
aS'unacc'
p1042
aa(lp1043
S'low'
p1044
aS'vhigh'
p1045
ag42
ag6
aS'big'
p1046
aS'low'
p1047
aS'unacc'
p1048
aa(lp1049
S'low'
p1050
aS'vhigh'
p1051
ag42
aS'more'
p1052
aS'small'
p1053
aS'low'
p1054
aS'unacc'
p1055
aa(lp1056
S'low'
p1057
aS'vhigh'
p1058
ag42
aS'more'
p1059
aS'small'
p1060
aS'med'
p1061
aS'unacc'
p1062
aa(lp1063
S'low'
p1064
aS'vhigh'
p1065
ag42
aS'more'
p1066
aS'small'
p1067
aS'high'
p1068
aS'unacc'
p1069
aa(lp1070
S'low'
p1071
aS'vhigh'
p1072
ag42
aS'more'
p1073
aS'med'
p1074
aS'low'
p1075
aS'unacc'
p1076
aa(lp1077
S'low'
p1078
aS'vhigh'
p1079
ag42
aS'more'
p1080
aS'med'
p1081
aS'med'
p1082
aS'unacc'
p1083
aa(lp1084
S'low'
p1085
aS'vhigh'
p1086
ag42
aS'more'
p1087
aS'big'
p1088
aS'low'
p1089
aS'unacc'
p1090
aa(lp1091
S'low'
p1092
aS'vhigh'
p1093
ag272
ag42
aS'small'
p1094
aS'low'
p1095
aS'unacc'
p1096
aa(lp1097
S'low'
p1098
aS'vhigh'
p1099
ag272
ag42
aS'small'
p1100
aS'med'
p1101
aS'unacc'
p1102
aa(lp1103
S'low'
p1104
aS'vhigh'
p1105
ag272
ag42
aS'small'
p1106
aS'high'
p1107
aS'unacc'
p1108
aa(lp1109
S'low'
p1110
aS'vhigh'
p1111
ag272
ag42
aS'med'
p1112
aS'low'
p1113
aS'unacc'
p1114
aa(lp1115
S'low'
p1116
aS'vhigh'
p1117
ag272
ag42
aS'med'
p1118
aS'med'
p1119
aS'unacc'
p1120
aa(lp1121
S'low'
p1122
aS'vhigh'
p1123
ag272
ag42
aS'med'
p1124
aS'high'
p1125
aS'unacc'
p1126
aa(lp1127
S'low'
p1128
aS'vhigh'
p1129
ag272
ag42
aS'big'
p1130
aS'low'
p1131
aS'unacc'
p1132
aa(lp1133
S'low'
p1134
aS'vhigh'
p1135
ag272
ag42
aS'big'
p1136
aS'med'
p1137
aS'unacc'
p1138
aa(lp1139
S'low'
p1140
aS'vhigh'
p1141
ag272
ag42
aS'big'
p1142
aS'high'
p1143
aS'unacc'
p1144
aa(lp1145
S'low'
p1146
aS'vhigh'
p1147
ag272
ag6
aS'small'
p1148
aS'low'
p1149
aS'unacc'
p1150
aa(lp1151
S'low'
p1152
aS'vhigh'
p1153
ag272
ag6
aS'small'
p1154
aS'med'
p1155
aS'unacc'
p1156
aa(lp1157
S'low'
p1158
aS'vhigh'
p1159
ag272
ag6
aS'med'
p1160
aS'low'
p1161
aS'unacc'
p1162
aa(lp1163
S'low'
p1164
aS'vhigh'
p1165
ag272
ag6
aS'med'
p1166
aS'med'
p1167
aS'unacc'
p1168
aa(lp1169
S'low'
p1170
aS'vhigh'
p1171
ag272
ag6
aS'big'
p1172
aS'low'
p1173
aS'unacc'
p1174
aa(lp1175
S'low'
p1176
aS'vhigh'
p1177
ag272
aS'more'
p1178
aS'small'
p1179
aS'low'
p1180
aS'unacc'
p1181
aa(lp1182
S'low'
p1183
aS'vhigh'
p1184
ag272
aS'more'
p1185
aS'small'
p1186
aS'med'
p1187
aS'unacc'
p1188
aa(lp1189
S'low'
p1190
aS'vhigh'
p1191
ag272
aS'more'
p1192
aS'med'
p1193
aS'low'
p1194
aS'unacc'
p1195
aa(lp1196
S'low'
p1197
aS'vhigh'
p1198
ag272
aS'more'
p1199
aS'big'
p1200
aS'low'
p1201
aS'unacc'
p1202
aa(lp1203
S'low'
p1204
aS'vhigh'
p1205
ag6
ag42
aS'small'
p1206
aS'low'
p1207
aS'unacc'
p1208
aa(lp1209
S'low'
p1210
aS'vhigh'
p1211
ag6
ag42
aS'small'
p1212
aS'med'
p1213
aS'unacc'
p1214
aa(lp1215
S'low'
p1216
aS'vhigh'
p1217
ag6
ag42
aS'small'
p1218
aS'high'
p1219
aS'unacc'
p1220
aa(lp1221
S'low'
p1222
aS'vhigh'
p1223
ag6
ag42
aS'med'
p1224
aS'low'
p1225
aS'unacc'
p1226
aa(lp1227
S'low'
p1228
aS'vhigh'
p1229
ag6
ag42
aS'med'
p1230
aS'med'
p1231
aS'unacc'
p1232
aa(lp1233
S'low'
p1234
aS'vhigh'
p1235
ag6
ag42
aS'med'
p1236
aS'high'
p1237
aS'unacc'
p1238
aa(lp1239
S'low'
p1240
aS'vhigh'
p1241
ag6
ag42
aS'big'
p1242
aS'low'
p1243
aS'unacc'
p1244
aa(lp1245
S'low'
p1246
aS'vhigh'
p1247
ag6
ag42
aS'big'
p1248
aS'med'
p1249
aS'unacc'
p1250
aa(lp1251
S'low'
p1252
aS'vhigh'
p1253
ag6
ag42
aS'big'
p1254
aS'high'
p1255
aS'unacc'
p1256
aa(lp1257
S'low'
p1258
aS'vhigh'
p1259
ag6
ag6
aS'small'
p1260
aS'low'
p1261
aS'unacc'
p1262
aa(lp1263
S'low'
p1264
aS'vhigh'
p1265
ag6
ag6
aS'small'
p1266
aS'med'
p1267
aS'unacc'
p1268
aa(lp1269
S'low'
p1270
aS'vhigh'
p1271
ag6
ag6
aS'med'
p1272
aS'low'
p1273
aS'unacc'
p1274
aa(lp1275
S'low'
p1276
aS'vhigh'
p1277
ag6
ag6
aS'big'
p1278
aS'low'
p1279
aS'unacc'
p1280
aa(lp1281
S'low'
p1282
aS'vhigh'
p1283
ag6
aS'more'
p1284
aS'small'
p1285
aS'low'
p1286
aS'unacc'
p1287
aa(lp1288
S'low'
p1289
aS'vhigh'
p1290
ag6
aS'more'
p1291
aS'small'
p1292
aS'med'
p1293
aS'unacc'
p1294
aa(lp1295
S'low'
p1296
aS'vhigh'
p1297
ag6
aS'more'
p1298
aS'med'
p1299
aS'low'
p1300
aS'unacc'
p1301
aa(lp1302
S'low'
p1303
aS'vhigh'
p1304
ag6
aS'more'
p1305
aS'big'
p1306
aS'low'
p1307
aS'unacc'
p1308
aa(lp1309
S'low'
p1310
aS'vhigh'
p1311
aS'5more'
p1312
ag42
aS'small'
p1313
aS'low'
p1314
aS'unacc'
p1315
aa(lp1316
S'low'
p1317
aS'vhigh'
p1318
aS'5more'
p1319
ag42
aS'small'
p1320
aS'med'
p1321
aS'unacc'
p1322
aa(lp1323
S'low'
p1324
aS'vhigh'
p1325
aS'5more'
p1326
ag42
aS'small'
p1327
aS'high'
p1328
aS'unacc'
p1329
aa(lp1330
S'low'
p1331
aS'vhigh'
p1332
aS'5more'
p1333
ag42
aS'med'
p1334
aS'low'
p1335
aS'unacc'
p1336
aa(lp1337
S'low'
p1338
aS'vhigh'
p1339
aS'5more'
p1340
ag42
aS'med'
p1341
aS'med'
p1342
aS'unacc'
p1343
aa(lp1344
S'low'
p1345
aS'vhigh'
p1346
aS'5more'
p1347
ag42
aS'med'
p1348
aS'high'
p1349
aS'unacc'
p1350
aa(lp1351
S'low'
p1352
aS'vhigh'
p1353
aS'5more'
p1354
ag42
aS'big'
p1355
aS'low'
p1356
aS'unacc'
p1357
aa(lp1358
S'low'
p1359
aS'vhigh'
p1360
aS'5more'
p1361
ag42
aS'big'
p1362
aS'med'
p1363
aS'unacc'
p1364
aa(lp1365
S'low'
p1366
aS'vhigh'
p1367
aS'5more'
p1368
ag42
aS'big'
p1369
aS'high'
p1370
aS'unacc'
p1371
aa(lp1372
S'low'
p1373
aS'vhigh'
p1374
aS'5more'
p1375
ag6
aS'small'
p1376
aS'low'
p1377
aS'unacc'
p1378
aa(lp1379
S'low'
p1380
aS'vhigh'
p1381
aS'5more'
p1382
ag6
aS'small'
p1383
aS'med'
p1384
aS'unacc'
p1385
aa(lp1386
S'low'
p1387
aS'vhigh'
p1388
aS'5more'
p1389
ag6
aS'med'
p1390
aS'low'
p1391
aS'unacc'
p1392
aa(lp1393
S'low'
p1394
aS'vhigh'
p1395
aS'5more'
p1396
ag6
aS'big'
p1397
aS'low'
p1398
aS'unacc'
p1399
aa(lp1400
S'low'
p1401
aS'vhigh'
p1402
aS'5more'
p1403
aS'more'
p1404
aS'small'
p1405
aS'low'
p1406
aS'unacc'
p1407
aa(lp1408
S'low'
p1409
aS'vhigh'
p1410
aS'5more'
p1411
aS'more'
p1412
aS'small'
p1413
aS'med'
p1414
aS'unacc'
p1415
aa(lp1416
S'low'
p1417
aS'vhigh'
p1418
aS'5more'
p1419
aS'more'
p1420
aS'med'
p1421
aS'low'
p1422
aS'unacc'
p1423
aa(lp1424
S'low'
p1425
aS'vhigh'
p1426
aS'5more'
p1427
aS'more'
p1428
aS'big'
p1429
aS'low'
p1430
aS'unacc'
p1431
aa(lp1432
S'low'
p1433
aS'high'
p1434
ag42
ag42
aS'small'
p1435
aS'low'
p1436
aS'unacc'
p1437
aa(lp1438
S'low'
p1439
aS'high'
p1440
ag42
ag42
aS'small'
p1441
aS'med'
p1442
aS'unacc'
p1443
aa(lp1444
S'low'
p1445
aS'high'
p1446
ag42
ag42
aS'small'
p1447
aS'high'
p1448
aS'unacc'
p1449
aa(lp1450
S'low'
p1451
aS'high'
p1452
ag42
ag42
aS'med'
p1453
aS'low'
p1454
aS'unacc'
p1455
aa(lp1456
S'low'
p1457
aS'high'
p1458
ag42
ag42
aS'med'
p1459
aS'med'
p1460
aS'unacc'
p1461
aa(lp1462
S'low'
p1463
aS'high'
p1464
ag42
ag42
aS'med'
p1465
aS'high'
p1466
aS'unacc'
p1467
aa(lp1468
S'low'
p1469
aS'high'
p1470
ag42
ag42
aS'big'
p1471
aS'low'
p1472
aS'unacc'
p1473
aa(lp1474
S'low'
p1475
aS'high'
p1476
ag42
ag42
aS'big'
p1477
aS'med'
p1478
aS'unacc'
p1479
aa(lp1480
S'low'
p1481
aS'high'
p1482
ag42
ag42
aS'big'
p1483
aS'high'
p1484
aS'unacc'
p1485
aa(lp1486
S'low'
p1487
aS'high'
p1488
ag42
ag6
aS'small'
p1489
aS'low'
p1490
aS'unacc'
p1491
aa(lp1492
S'low'
p1493
aS'high'
p1494
ag42
ag6
aS'med'
p1495
aS'low'
p1496
aS'unacc'
p1497
aa(lp1498
S'low'
p1499
aS'high'
p1500
ag42
ag6
aS'big'
p1501
aS'low'
p1502
aS'unacc'
p1503
aa(lp1504
S'low'
p1505
aS'high'
p1506
ag42
aS'more'
p1507
aS'small'
p1508
aS'low'
p1509
aS'unacc'
p1510
aa(lp1511
S'low'
p1512
aS'high'
p1513
ag42
aS'more'
p1514
aS'small'
p1515
aS'med'
p1516
aS'unacc'
p1517
aa(lp1518
S'low'
p1519
aS'high'
p1520
ag42
aS'more'
p1521
aS'small'
p1522
aS'high'
p1523
aS'unacc'
p1524
aa(lp1525
S'low'
p1526
aS'high'
p1527
ag42
aS'more'
p1528
aS'med'
p1529
aS'low'
p1530
aS'unacc'
p1531
aa(lp1532
S'low'
p1533
aS'high'
p1534
ag42
aS'more'
p1535
aS'big'
p1536
aS'low'
p1537
aS'unacc'
p1538
aa(lp1539
S'low'
p1540
aS'high'
p1541
ag272
ag42
aS'small'
p1542
aS'low'
p1543
aS'unacc'
p1544
aa(lp1545
S'low'
p1546
aS'high'
p1547
ag272
ag42
aS'small'
p1548
aS'med'
p1549
aS'unacc'
p1550
aa(lp1551
S'low'
p1552
aS'high'
p1553
ag272
ag42
aS'small'
p1554
aS'high'
p1555
aS'unacc'
p1556
aa(lp1557
S'low'
p1558
aS'high'
p1559
ag272
ag42
aS'med'
p1560
aS'low'
p1561
aS'unacc'
p1562
aa(lp1563
S'low'
p1564
aS'high'
p1565
ag272
ag42
aS'med'
p1566
aS'med'
p1567
aS'unacc'
p1568
aa(lp1569
S'low'
p1570
aS'high'
p1571
ag272
ag42
aS'med'
p1572
aS'high'
p1573
aS'unacc'
p1574
aa(lp1575
S'low'
p1576
aS'high'
p1577
ag272
ag42
aS'big'
p1578
aS'low'
p1579
aS'unacc'
p1580
aa(lp1581
S'low'
p1582
aS'high'
p1583
ag272
ag42
aS'big'
p1584
aS'med'
p1585
aS'unacc'
p1586
aa(lp1587
S'low'
p1588
aS'high'
p1589
ag272
ag42
aS'big'
p1590
aS'high'
p1591
aS'unacc'
p1592
aa(lp1593
S'low'
p1594
aS'high'
p1595
ag272
ag6
aS'small'
p1596
aS'low'
p1597
aS'unacc'
p1598
aa(lp1599
S'low'
p1600
aS'high'
p1601
ag272
ag6
aS'med'
p1602
aS'low'
p1603
aS'unacc'
p1604
aa(lp1605
S'low'
p1606
aS'high'
p1607
ag272
ag6
aS'big'
p1608
aS'low'
p1609
aS'unacc'
p1610
aa(lp1611
S'low'
p1612
aS'high'
p1613
ag272
aS'more'
p1614
aS'small'
p1615
aS'low'
p1616
aS'unacc'
p1617
aa(lp1618
S'low'
p1619
aS'high'
p1620
ag272
aS'more'
p1621
aS'med'
p1622
aS'low'
p1623
aS'unacc'
p1624
aa(lp1625
S'low'
p1626
aS'high'
p1627
ag272
aS'more'
p1628
aS'big'
p1629
aS'low'
p1630
aS'unacc'
p1631
aa(lp1632
S'low'
p1633
aS'high'
p1634
ag6
ag42
aS'small'
p1635
aS'low'
p1636
aS'unacc'
p1637
aa(lp1638
S'low'
p1639
aS'high'
p1640
ag6
ag42
aS'small'
p1641
aS'med'
p1642
aS'unacc'
p1643
aa(lp1644
S'low'
p1645
aS'high'
p1646
ag6
ag42
aS'small'
p1647
aS'high'
p1648
aS'unacc'
p1649
aa(lp1650
S'low'
p1651
aS'high'
p1652
ag6
ag42
aS'med'
p1653
aS'low'
p1654
aS'unacc'
p1655
aa(lp1656
S'low'
p1657
aS'high'
p1658
ag6
ag42
aS'med'
p1659
aS'med'
p1660
aS'unacc'
p1661
aa(lp1662
S'low'
p1663
aS'high'
p1664
ag6
ag42
aS'med'
p1665
aS'high'
p1666
aS'unacc'
p1667
aa(lp1668
S'low'
p1669
aS'high'
p1670
ag6
ag42
aS'big'
p1671
aS'low'
p1672
aS'unacc'
p1673
aa(lp1674
S'low'
p1675
aS'high'
p1676
ag6
ag42
aS'big'
p1677
aS'med'
p1678
aS'unacc'
p1679
aa(lp1680
S'low'
p1681
aS'high'
p1682
ag6
ag42
aS'big'
p1683
aS'high'
p1684
aS'unacc'
p1685
aa(lp1686
S'low'
p1687
aS'high'
p1688
ag6
ag6
aS'small'
p1689
aS'low'
p1690
aS'unacc'
p1691
aa(lp1692
S'low'
p1693
aS'high'
p1694
ag6
ag6
aS'med'
p1695
aS'low'
p1696
aS'unacc'
p1697
aa(lp1698
S'low'
p1699
aS'high'
p1700
ag6
ag6
aS'big'
p1701
aS'low'
p1702
aS'unacc'
p1703
aa(lp1704
S'low'
p1705
aS'high'
p1706
ag6
aS'more'
p1707
aS'small'
p1708
aS'low'
p1709
aS'unacc'
p1710
aa(lp1711
S'low'
p1712
aS'high'
p1713
ag6
aS'more'
p1714
aS'med'
p1715
aS'low'
p1716
aS'unacc'
p1717
aa(lp1718
S'low'
p1719
aS'high'
p1720
ag6
aS'more'
p1721
aS'big'
p1722
aS'low'
p1723
aS'unacc'
p1724
aa(lp1725
S'low'
p1726
aS'high'
p1727
aS'5more'
p1728
ag42
aS'small'
p1729
aS'low'
p1730
aS'unacc'
p1731
aa(lp1732
S'low'
p1733
aS'high'
p1734
aS'5more'
p1735
ag42
aS'small'
p1736
aS'med'
p1737
aS'unacc'
p1738
aa(lp1739
S'low'
p1740
aS'high'
p1741
aS'5more'
p1742
ag42
aS'small'
p1743
aS'high'
p1744
aS'unacc'
p1745
aa(lp1746
S'low'
p1747
aS'high'
p1748
aS'5more'
p1749
ag42
aS'med'
p1750
aS'low'
p1751
aS'unacc'
p1752
aa(lp1753
S'low'
p1754
aS'high'
p1755
aS'5more'
p1756
ag42
aS'med'
p1757
aS'med'
p1758
aS'unacc'
p1759
aa(lp1760
S'low'
p1761
aS'high'
p1762
aS'5more'
p1763
ag42
aS'med'
p1764
aS'high'
p1765
aS'unacc'
p1766
aa(lp1767
S'low'
p1768
aS'high'
p1769
aS'5more'
p1770
ag42
aS'big'
p1771
aS'low'
p1772
aS'unacc'
p1773
aa(lp1774
S'low'
p1775
aS'high'
p1776
aS'5more'
p1777
ag42
aS'big'
p1778
aS'med'
p1779
aS'unacc'
p1780
aa(lp1781
S'low'
p1782
aS'high'
p1783
aS'5more'
p1784
ag42
aS'big'
p1785
aS'high'
p1786
aS'unacc'
p1787
aa(lp1788
S'low'
p1789
aS'high'
p1790
aS'5more'
p1791
ag6
aS'small'
p1792
aS'low'
p1793
aS'unacc'
p1794
aa(lp1795
S'low'
p1796
aS'high'
p1797
aS'5more'
p1798
ag6
aS'med'
p1799
aS'low'
p1800
aS'unacc'
p1801
aa(lp1802
S'low'
p1803
aS'high'
p1804
aS'5more'
p1805
ag6
aS'big'
p1806
aS'low'
p1807
aS'unacc'
p1808
aa(lp1809
S'low'
p1810
aS'high'
p1811
aS'5more'
p1812
aS'more'
p1813
aS'small'
p1814
aS'low'
p1815
aS'unacc'
p1816
aa(lp1817
S'low'
p1818
aS'high'
p1819
aS'5more'
p1820
aS'more'
p1821
aS'med'
p1822
aS'low'
p1823
aS'unacc'
p1824
aa(lp1825
S'low'
p1826
aS'high'
p1827
aS'5more'
p1828
aS'more'
p1829
aS'big'
p1830
aS'low'
p1831
aS'unacc'
p1832
aa(lp1833
S'low'
p1834
aS'med'
p1835
ag42
ag42
aS'small'
p1836
aS'low'
p1837
aS'unacc'
p1838
aa(lp1839
S'low'
p1840
aS'med'
p1841
ag42
ag42
aS'small'
p1842
aS'med'
p1843
aS'unacc'
p1844
aa(lp1845
S'low'
p1846
aS'med'
p1847
ag42
ag42
aS'small'
p1848
aS'high'
p1849
aS'unacc'
p1850
aa(lp1851
S'low'
p1852
aS'med'
p1853
ag42
ag42
aS'med'
p1854
aS'low'
p1855
aS'unacc'
p1856
aa(lp1857
S'low'
p1858
aS'med'
p1859
ag42
ag42
aS'med'
p1860
aS'med'
p1861
aS'unacc'
p1862
aa(lp1863
S'low'
p1864
aS'med'
p1865
ag42
ag42
aS'med'
p1866
aS'high'
p1867
aS'unacc'
p1868
aa(lp1869
S'low'
p1870
aS'med'
p1871
ag42
ag42
aS'big'
p1872
aS'low'
p1873
aS'unacc'
p1874
aa(lp1875
S'low'
p1876
aS'med'
p1877
ag42
ag42
aS'big'
p1878
aS'med'
p1879
aS'unacc'
p1880
aa(lp1881
S'low'
p1882
aS'med'
p1883
ag42
ag42
aS'big'
p1884
aS'high'
p1885
aS'unacc'
p1886
aa(lp1887
S'low'
p1888
aS'med'
p1889
ag42
ag6
aS'small'
p1890
aS'low'
p1891
aS'unacc'
p1892
aa(lp1893
S'low'
p1894
aS'med'
p1895
ag42
ag6
aS'med'
p1896
aS'low'
p1897
aS'unacc'
p1898
aa(lp1899
S'low'
p1900
aS'med'
p1901
ag42
ag6
aS'big'
p1902
aS'low'
p1903
aS'unacc'
p1904
aa(lp1905
S'low'
p1906
aS'med'
p1907
ag42
aS'more'
p1908
aS'small'
p1909
aS'low'
p1910
aS'unacc'
p1911
aa(lp1912
S'low'
p1913
aS'med'
p1914
ag42
aS'more'
p1915
aS'small'
p1916
aS'med'
p1917
aS'unacc'
p1918
aa(lp1919
S'low'
p1920
aS'med'
p1921
ag42
aS'more'
p1922
aS'small'
p1923
aS'high'
p1924
aS'unacc'
p1925
aa(lp1926
S'low'
p1927
aS'med'
p1928
ag42
aS'more'
p1929
aS'med'
p1930
aS'low'
p1931
aS'unacc'
p1932
aa(lp1933
S'low'
p1934
aS'med'
p1935
ag42
aS'more'
p1936
aS'big'
p1937
aS'low'
p1938
aS'unacc'
p1939
aa(lp1940
S'low'
p1941
aS'med'
p1942
ag272
ag42
aS'small'
p1943
aS'low'
p1944
aS'unacc'
p1945
aa(lp1946
S'low'
p1947
aS'med'
p1948
ag272
ag42
aS'small'
p1949
aS'med'
p1950
aS'unacc'
p1951
aa(lp1952
S'low'
p1953
aS'med'
p1954
ag272
ag42
aS'small'
p1955
aS'high'
p1956
aS'unacc'
p1957
aa(lp1958
S'low'
p1959
aS'med'
p1960
ag272
ag42
aS'med'
p1961
aS'low'
p1962
aS'unacc'
p1963
aa(lp1964
S'low'
p1965
aS'med'
p1966
ag272
ag42
aS'med'
p1967
aS'med'
p1968
aS'unacc'
p1969
aa(lp1970
S'low'
p1971
aS'med'
p1972
ag272
ag42
aS'med'
p1973
aS'high'
p1974
aS'unacc'
p1975
aa(lp1976
S'low'
p1977
aS'med'
p1978
ag272
ag42
aS'big'
p1979
aS'low'
p1980
aS'unacc'
p1981
aa(lp1982
S'low'
p1983
aS'med'
p1984
ag272
ag42
aS'big'
p1985
aS'med'
p1986
aS'unacc'
p1987
aa(lp1988
S'low'
p1989
aS'med'
p1990
ag272
ag42
aS'big'
p1991
aS'high'
p1992
aS'unacc'
p1993
aa(lp1994
S'low'
p1995
aS'med'
p1996
ag272
ag6
aS'small'
p1997
aS'low'
p1998
aS'unacc'
p1999
aa(lp2000
S'low'
p2001
aS'med'
p2002
ag272
ag6
aS'med'
p2003
aS'low'
p2004
aS'unacc'
p2005
aa(lp2006
S'low'
p2007
aS'med'
p2008
ag272
ag6
aS'big'
p2009
aS'low'
p2010
aS'unacc'
p2011
aa(lp2012
S'low'
p2013
aS'med'
p2014
ag272
aS'more'
p2015
aS'small'
p2016
aS'low'
p2017
aS'unacc'
p2018
aa(lp2019
S'low'
p2020
aS'med'
p2021
ag272
aS'more'
p2022
aS'med'
p2023
aS'low'
p2024
aS'unacc'
p2025
aa(lp2026
S'low'
p2027
aS'med'
p2028
ag272
aS'more'
p2029
aS'big'
p2030
aS'low'
p2031
aS'unacc'
p2032
aa(lp2033
S'low'
p2034
aS'med'
p2035
ag6
ag42
aS'small'
p2036
aS'low'
p2037
aS'unacc'
p2038
aa(lp2039
S'low'
p2040
aS'med'
p2041
ag6
ag42
aS'small'
p2042
aS'med'
p2043
aS'unacc'
p2044
aa(lp2045
S'low'
p2046
aS'med'
p2047
ag6
ag42
aS'small'
p2048
aS'high'
p2049
aS'unacc'
p2050
aa(lp2051
S'low'
p2052
aS'med'
p2053
ag6
ag42
aS'med'
p2054
aS'low'
p2055
aS'unacc'
p2056
aa(lp2057
S'low'
p2058
aS'med'
p2059
ag6
ag42
aS'med'
p2060
aS'med'
p2061
aS'unacc'
p2062
aa(lp2063
S'low'
p2064
aS'med'
p2065
ag6
ag42
aS'med'
p2066
aS'high'
p2067
aS'unacc'
p2068
aa(lp2069
S'low'
p2070
aS'med'
p2071
ag6
ag42
aS'big'
p2072
aS'low'
p2073
aS'unacc'
p2074
aa(lp2075
S'low'
p2076
aS'med'
p2077
ag6
ag42
aS'big'
p2078
aS'med'
p2079
aS'unacc'
p2080
aa(lp2081
S'low'
p2082
aS'med'
p2083
ag6
ag42
aS'big'
p2084
aS'high'
p2085
aS'unacc'
p2086
aa(lp2087
S'low'
p2088
aS'med'
p2089
ag6
ag6
aS'small'
p2090
aS'low'
p2091
aS'unacc'
p2092
aa(lp2093
S'low'
p2094
aS'med'
p2095
ag6
ag6
aS'med'
p2096
aS'low'
p2097
aS'unacc'
p2098
aa(lp2099
S'low'
p2100
aS'med'
p2101
ag6
ag6
aS'big'
p2102
aS'low'
p2103
aS'unacc'
p2104
aa(lp2105
S'low'
p2106
aS'med'
p2107
ag6
aS'more'
p2108
aS'small'
p2109
aS'low'
p2110
aS'unacc'
p2111
aa(lp2112
S'low'
p2113
aS'med'
p2114
ag6
aS'more'
p2115
aS'med'
p2116
aS'low'
p2117
aS'unacc'
p2118
aa(lp2119
S'low'
p2120
aS'med'
p2121
ag6
aS'more'
p2122
aS'big'
p2123
aS'low'
p2124
aS'unacc'
p2125
aa(lp2126
S'low'
p2127
aS'med'
p2128
aS'5more'
p2129
ag42
aS'small'
p2130
aS'low'
p2131
aS'unacc'
p2132
aa(lp2133
S'low'
p2134
aS'med'
p2135
aS'5more'
p2136
ag42
aS'small'
p2137
aS'med'
p2138
aS'unacc'
p2139
aa(lp2140
S'low'
p2141
aS'med'
p2142
aS'5more'
p2143
ag42
aS'small'
p2144
aS'high'
p2145
aS'unacc'
p2146
aa(lp2147
S'low'
p2148
aS'med'
p2149
aS'5more'
p2150
ag42
aS'med'
p2151
aS'low'
p2152
aS'unacc'
p2153
aa(lp2154
S'low'
p2155
aS'med'
p2156
aS'5more'
p2157
ag42
aS'med'
p2158
aS'med'
p2159
aS'unacc'
p2160
aa(lp2161
S'low'
p2162
aS'med'
p2163
aS'5more'
p2164
ag42
aS'med'
p2165
aS'high'
p2166
aS'unacc'
p2167
aa(lp2168
S'low'
p2169
aS'med'
p2170
aS'5more'
p2171
ag42
aS'big'
p2172
aS'low'
p2173
aS'unacc'
p2174
aa(lp2175
S'low'
p2176
aS'med'
p2177
aS'5more'
p2178
ag42
aS'big'
p2179
aS'med'
p2180
aS'unacc'
p2181
aa(lp2182
S'low'
p2183
aS'med'
p2184
aS'5more'
p2185
ag42
aS'big'
p2186
aS'high'
p2187
aS'unacc'
p2188
aa(lp2189
S'low'
p2190
aS'med'
p2191
aS'5more'
p2192
ag6
aS'small'
p2193
aS'low'
p2194
aS'unacc'
p2195
aa(lp2196
S'low'
p2197
aS'med'
p2198
aS'5more'
p2199
ag6
aS'med'
p2200
aS'low'
p2201
aS'unacc'
p2202
aa(lp2203
S'low'
p2204
aS'med'
p2205
aS'5more'
p2206
ag6
aS'big'
p2207
aS'low'
p2208
aS'unacc'
p2209
aa(lp2210
S'low'
p2211
aS'med'
p2212
aS'5more'
p2213
aS'more'
p2214
aS'small'
p2215
aS'low'
p2216
aS'unacc'
p2217
aa(lp2218
S'low'
p2219
aS'med'
p2220
aS'5more'
p2221
aS'more'
p2222
aS'med'
p2223
aS'low'
p2224
aS'unacc'
p2225
aa(lp2226
S'low'
p2227
aS'med'
p2228
aS'5more'
p2229
aS'more'
p2230
aS'big'
p2231
aS'low'
p2232
aS'unacc'
p2233
aa(lp2234
S'low'
p2235
aS'low'
p2236
ag42
ag42
aS'small'
p2237
aS'low'
p2238
aS'unacc'
p2239
aa(lp2240
S'low'
p2241
aS'low'
p2242
ag42
ag42
aS'small'
p2243
aS'med'
p2244
aS'unacc'
p2245
aa(lp2246
S'low'
p2247
aS'low'
p2248
ag42
ag42
aS'small'
p2249
aS'high'
p2250
aS'unacc'
p2251
aa(lp2252
S'low'
p2253
aS'low'
p2254
ag42
ag42
aS'med'
p2255
aS'low'
p2256
aS'unacc'
p2257
aa(lp2258
S'low'
p2259
aS'low'
p2260
ag42
ag42
aS'med'
p2261
aS'med'
p2262
aS'unacc'
p2263
aa(lp2264
S'low'
p2265
aS'low'
p2266
ag42
ag42
aS'med'
p2267
aS'high'
p2268
aS'unacc'
p2269
aa(lp2270
S'low'
p2271
aS'low'
p2272
ag42
ag42
aS'big'
p2273
aS'low'
p2274
aS'unacc'
p2275
aa(lp2276
S'low'
p2277
aS'low'
p2278
ag42
ag42
aS'big'
p2279
aS'med'
p2280
aS'unacc'
p2281
aa(lp2282
S'low'
p2283
aS'low'
p2284
ag42
ag42
aS'big'
p2285
aS'high'
p2286
aS'unacc'
p2287
aa(lp2288
S'low'
p2289
aS'low'
p2290
ag42
ag6
aS'small'
p2291
aS'low'
p2292
aS'unacc'
p2293
aa(lp2294
S'low'
p2295
aS'low'
p2296
ag42
ag6
aS'med'
p2297
aS'low'
p2298
aS'unacc'
p2299
aa(lp2300
S'low'
p2301
aS'low'
p2302
ag42
ag6
aS'big'
p2303
aS'low'
p2304
aS'unacc'
p2305
aa(lp2306
S'low'
p2307
aS'low'
p2308
ag42
aS'more'
p2309
aS'small'
p2310
aS'low'
p2311
aS'unacc'
p2312
aa(lp2313
S'low'
p2314
aS'low'
p2315
ag42
aS'more'
p2316
aS'small'
p2317
aS'med'
p2318
aS'unacc'
p2319
aa(lp2320
S'low'
p2321
aS'low'
p2322
ag42
aS'more'
p2323
aS'small'
p2324
aS'high'
p2325
aS'unacc'
p2326
aa(lp2327
S'low'
p2328
aS'low'
p2329
ag42
aS'more'
p2330
aS'med'
p2331
aS'low'
p2332
aS'unacc'
p2333
aa(lp2334
S'low'
p2335
aS'low'
p2336
ag42
aS'more'
p2337
aS'big'
p2338
aS'low'
p2339
aS'unacc'
p2340
aa(lp2341
S'low'
p2342
aS'low'
p2343
ag272
ag42
aS'small'
p2344
aS'low'
p2345
aS'unacc'
p2346
aa(lp2347
S'low'
p2348
aS'low'
p2349
ag272
ag42
aS'small'
p2350
aS'med'
p2351
aS'unacc'
p2352
aa(lp2353
S'low'
p2354
aS'low'
p2355
ag272
ag42
aS'small'
p2356
aS'high'
p2357
aS'unacc'
p2358
aa(lp2359
S'low'
p2360
aS'low'
p2361
ag272
ag42
aS'med'
p2362
aS'low'
p2363
aS'unacc'
p2364
aa(lp2365
S'low'
p2366
aS'low'
p2367
ag272
ag42
aS'med'
p2368
aS'med'
p2369
aS'unacc'
p2370
aa(lp2371
S'low'
p2372
aS'low'
p2373
ag272
ag42
aS'med'
p2374
aS'high'
p2375
aS'unacc'
p2376
aa(lp2377
S'low'
p2378
aS'low'
p2379
ag272
ag42
aS'big'
p2380
aS'low'
p2381
aS'unacc'
p2382
aa(lp2383
S'low'
p2384
aS'low'
p2385
ag272
ag42
aS'big'
p2386
aS'med'
p2387
aS'unacc'
p2388
aa(lp2389
S'low'
p2390
aS'low'
p2391
ag272
ag42
aS'big'
p2392
aS'high'
p2393
aS'unacc'
p2394
aa(lp2395
S'low'
p2396
aS'low'
p2397
ag272
ag6
aS'small'
p2398
aS'low'
p2399
aS'unacc'
p2400
aa(lp2401
S'low'
p2402
aS'low'
p2403
ag272
ag6
aS'med'
p2404
aS'low'
p2405
aS'unacc'
p2406
aa(lp2407
S'low'
p2408
aS'low'
p2409
ag272
ag6
aS'big'
p2410
aS'low'
p2411
aS'unacc'
p2412
aa(lp2413
S'low'
p2414
aS'low'
p2415
ag272
aS'more'
p2416
aS'small'
p2417
aS'low'
p2418
aS'unacc'
p2419
aa(lp2420
S'low'
p2421
aS'low'
p2422
ag272
aS'more'
p2423
aS'med'
p2424
aS'low'
p2425
aS'unacc'
p2426
aa(lp2427
S'low'
p2428
aS'low'
p2429
ag272
aS'more'
p2430
aS'big'
p2431
aS'low'
p2432
aS'unacc'
p2433
aa(lp2434
S'low'
p2435
aS'low'
p2436
ag6
ag42
aS'small'
p2437
aS'low'
p2438
aS'unacc'
p2439
aa(lp2440
S'low'
p2441
aS'low'
p2442
ag6
ag42
aS'small'
p2443
aS'med'
p2444
aS'unacc'
p2445
aa(lp2446
S'low'
p2447
aS'low'
p2448
ag6
ag42
aS'small'
p2449
aS'high'
p2450
aS'unacc'
p2451
aa(lp2452
S'low'
p2453
aS'low'
p2454
ag6
ag42
aS'med'
p2455
aS'low'
p2456
aS'unacc'
p2457
aa(lp2458
S'low'
p2459
aS'low'
p2460
ag6
ag42
aS'med'
p2461
aS'med'
p2462
aS'unacc'
p2463
aa(lp2464
S'low'
p2465
aS'low'
p2466
ag6
ag42
aS'med'
p2467
aS'high'
p2468
aS'unacc'
p2469
aa(lp2470
S'low'
p2471
aS'low'
p2472
ag6
ag42
aS'big'
p2473
aS'low'
p2474
aS'unacc'
p2475
aa(lp2476
S'low'
p2477
aS'low'
p2478
ag6
ag42
aS'big'
p2479
aS'med'
p2480
aS'unacc'
p2481
aa(lp2482
S'low'
p2483
aS'low'
p2484
ag6
ag42
aS'big'
p2485
aS'high'
p2486
aS'unacc'
p2487
aa(lp2488
S'low'
p2489
aS'low'
p2490
ag6
ag6
aS'small'
p2491
aS'low'
p2492
aS'unacc'
p2493
aa(lp2494
S'low'
p2495
aS'low'
p2496
ag6
ag6
aS'med'
p2497
aS'low'
p2498
aS'unacc'
p2499
aa(lp2500
S'low'
p2501
aS'low'
p2502
ag6
ag6
aS'big'
p2503
aS'low'
p2504
aS'unacc'
p2505
aa(lp2506
S'low'
p2507
aS'low'
p2508
ag6
aS'more'
p2509
aS'small'
p2510
aS'low'
p2511
aS'unacc'
p2512
aa(lp2513
S'low'
p2514
aS'low'
p2515
ag6
aS'more'
p2516
aS'med'
p2517
aS'low'
p2518
aS'unacc'
p2519
aa(lp2520
S'low'
p2521
aS'low'
p2522
ag6
aS'more'
p2523
aS'big'
p2524
aS'low'
p2525
aS'unacc'
p2526
aa(lp2527
S'low'
p2528
aS'low'
p2529
aS'5more'
p2530
ag42
aS'small'
p2531
aS'low'
p2532
aS'unacc'
p2533
aa(lp2534
S'low'
p2535
aS'low'
p2536
aS'5more'
p2537
ag42
aS'small'
p2538
aS'med'
p2539
aS'unacc'
p2540
aa(lp2541
S'low'
p2542
aS'low'
p2543
aS'5more'
p2544
ag42
aS'small'
p2545
aS'high'
p2546
aS'unacc'
p2547
aa(lp2548
S'low'
p2549
aS'low'
p2550
aS'5more'
p2551
ag42
aS'med'
p2552
aS'low'
p2553
aS'unacc'
p2554
aa(lp2555
S'low'
p2556
aS'low'
p2557
aS'5more'
p2558
ag42
aS'med'
p2559
aS'med'
p2560
aS'unacc'
p2561
aa(lp2562
S'low'
p2563
aS'low'
p2564
aS'5more'
p2565
ag42
aS'med'
p2566
aS'high'
p2567
aS'unacc'
p2568
aa(lp2569
S'low'
p2570
aS'low'
p2571
aS'5more'
p2572
ag42
aS'big'
p2573
aS'low'
p2574
aS'unacc'
p2575
aa(lp2576
S'low'
p2577
aS'low'
p2578
aS'5more'
p2579
ag42
aS'big'
p2580
aS'med'
p2581
aS'unacc'
p2582
aa(lp2583
S'low'
p2584
aS'low'
p2585
aS'5more'
p2586
ag42
aS'big'
p2587
aS'high'
p2588
aS'unacc'
p2589
aa(lp2590
S'low'
p2591
aS'low'
p2592
aS'5more'
p2593
ag6
aS'small'
p2594
aS'low'
p2595
aS'unacc'
p2596
aa(lp2597
S'low'
p2598
aS'low'
p2599
aS'5more'
p2600
ag6
aS'med'
p2601
aS'low'
p2602
aS'unacc'
p2603
aa(lp2604
S'low'
p2605
aS'low'
p2606
aS'5more'
p2607
ag6
aS'big'
p2608
aS'low'
p2609
aS'unacc'
p2610
aa(lp2611
S'low'
p2612
aS'low'
p2613
aS'5more'
p2614
aS'more'
p2615
aS'small'
p2616
aS'low'
p2617
aS'unacc'
p2618
aa(lp2619
S'low'
p2620
aS'low'
p2621
aS'5more'
p2622
aS'more'
p2623
aS'med'
p2624
aS'low'
p2625
aS'unacc'
p2626
aa(lp2627
S'low'
p2628
aS'low'
p2629
aS'5more'
p2630
aS'more'
p2631
aS'big'
p2632
aS'low'
p2633
aS'unacc'
p2634
aa(lp2635
S'med'
p2636
aS'med'
p2637
ag42
ag6
aS'big'
p2638
aS'med'
p2639
aS'acc'
p2640
aa(lp2641
S'med'
p2642
aS'med'
p2643
ag42
aS'more'
p2644
aS'med'
p2645
aS'med'
p2646
aS'acc'
p2647
aa(lp2648
S'med'
p2649
aS'med'
p2650
ag42
aS'more'
p2651
aS'med'
p2652
aS'high'
p2653
aS'acc'
p2654
aa(lp2655
S'med'
p2656
aS'med'
p2657
ag42
aS'more'
p2658
aS'big'
p2659
aS'med'
p2660
aS'acc'
p2661
aa(lp2662
S'med'
p2663
aS'med'
p2664
ag272
ag6
aS'small'
p2665
aS'med'
p2666
aS'acc'
p2667
aa(lp2668
S'med'
p2669
aS'med'
p2670
ag272
ag6
aS'small'
p2671
aS'high'
p2672
aS'acc'
p2673
aa(lp2674
S'med'
p2675
aS'med'
p2676
ag272
ag6
aS'med'
p2677
aS'med'
p2678
aS'acc'
p2679
aa(lp2680
S'med'
p2681
aS'med'
p2682
ag272
ag6
aS'med'
p2683
aS'high'
p2684
aS'acc'
p2685
aa(lp2686
S'med'
p2687
aS'med'
p2688
ag272
ag6
aS'big'
p2689
aS'med'
p2690
aS'acc'
p2691
aa(lp2692
S'med'
p2693
aS'med'
p2694
ag272
aS'more'
p2695
aS'small'
p2696
aS'med'
p2697
aS'acc'
p2698
aa(lp2699
S'med'
p2700
aS'med'
p2701
ag272
aS'more'
p2702
aS'small'
p2703
aS'high'
p2704
aS'acc'
p2705
aa(lp2706
S'med'
p2707
aS'med'
p2708
ag272
aS'more'
p2709
aS'med'
p2710
aS'med'
p2711
aS'acc'
p2712
aa(lp2713
S'med'
p2714
aS'med'
p2715
ag272
aS'more'
p2716
aS'big'
p2717
aS'med'
p2718
aS'acc'
p2719
aa(lp2720
S'med'
p2721
aS'med'
p2722
ag6
ag6
aS'small'
p2723
aS'med'
p2724
aS'acc'
p2725
aa(lp2726
S'med'
p2727
aS'med'
p2728
ag6
ag6
aS'small'
p2729
aS'high'
p2730
aS'acc'
p2731
aa(lp2732
S'med'
p2733
aS'med'
p2734
ag6
ag6
aS'med'
p2735
aS'med'
p2736
aS'acc'
p2737
aa(lp2738
S'med'
p2739
aS'med'
p2740
ag6
ag6
aS'big'
p2741
aS'med'
p2742
aS'acc'
p2743
aa(lp2744
S'med'
p2745
aS'med'
p2746
ag6
aS'more'
p2747
aS'small'
p2748
aS'med'
p2749
aS'acc'
p2750
aa(lp2751
S'med'
p2752
aS'med'
p2753
ag6
aS'more'
p2754
aS'small'
p2755
aS'high'
p2756
aS'acc'
p2757
aa(lp2758
S'med'
p2759
aS'med'
p2760
ag6
aS'more'
p2761
aS'med'
p2762
aS'med'
p2763
aS'acc'
p2764
aa(lp2765
S'med'
p2766
aS'med'
p2767
ag6
aS'more'
p2768
aS'big'
p2769
aS'med'
p2770
aS'acc'
p2771
aa(lp2772
S'med'
p2773
aS'med'
p2774
aS'5more'
p2775
ag6
aS'small'
p2776
aS'med'
p2777
aS'acc'
p2778
aa(lp2779
S'med'
p2780
aS'med'
p2781
aS'5more'
p2782
ag6
aS'small'
p2783
aS'high'
p2784
aS'acc'
p2785
aa(lp2786
S'med'
p2787
aS'med'
p2788
aS'5more'
p2789
ag6
aS'med'
p2790
aS'med'
p2791
aS'acc'
p2792
aa(lp2793
S'med'
p2794
aS'med'
p2795
aS'5more'
p2796
ag6
aS'big'
p2797
aS'med'
p2798
aS'acc'
p2799
aa(lp2800
S'med'
p2801
aS'med'
p2802
aS'5more'
p2803
aS'more'
p2804
aS'small'
p2805
aS'med'
p2806
aS'acc'
p2807
aa(lp2808
S'med'
p2809
aS'med'
p2810
aS'5more'
p2811
aS'more'
p2812
aS'small'
p2813
aS'high'
p2814
aS'acc'
p2815
aa(lp2816
S'med'
p2817
aS'med'
p2818
aS'5more'
p2819
aS'more'
p2820
aS'med'
p2821
aS'med'
p2822
aS'acc'
p2823
aa(lp2824
S'med'
p2825
aS'med'
p2826
aS'5more'
p2827
aS'more'
p2828
aS'big'
p2829
aS'med'
p2830
aS'acc'
p2831
aa(lp2832
S'med'
p2833
aS'low'
p2834
ag42
ag6
aS'small'
p2835
aS'med'
p2836
aS'acc'
p2837
aa(lp2838
S'med'
p2839
aS'low'
p2840
ag42
ag6
aS'med'
p2841
aS'med'
p2842
aS'acc'
p2843
aa(lp2844
S'med'
p2845
aS'low'
p2846
ag42
aS'more'
p2847
aS'med'
p2848
aS'med'
p2849
aS'acc'
p2850
aa(lp2851
S'med'
p2852
aS'low'
p2853
ag272
ag6
aS'small'
p2854
aS'med'
p2855
aS'acc'
p2856
aa(lp2857
S'med'
p2858
aS'low'
p2859
ag272
ag6
aS'med'
p2860
aS'med'
p2861
aS'acc'
p2862
aa(lp2863
S'med'
p2864
aS'low'
p2865
ag272
aS'more'
p2866
aS'small'
p2867
aS'med'
p2868
aS'acc'
p2869
aa(lp2870
S'med'
p2871
aS'low'
p2872
ag6
ag6
aS'small'
p2873
aS'med'
p2874
aS'acc'
p2875
aa(lp2876
S'med'
p2877
aS'low'
p2878
ag6
aS'more'
p2879
aS'small'
p2880
aS'med'
p2881
aS'acc'
p2882
aa(lp2883
S'med'
p2884
aS'low'
p2885
aS'5more'
p2886
ag6
aS'small'
p2887
aS'med'
p2888
aS'acc'
p2889
aa(lp2890
S'med'
p2891
aS'low'
p2892
aS'5more'
p2893
aS'more'
p2894
aS'small'
p2895
aS'med'
p2896
aS'acc'
p2897
aa(lp2898
S'low'
p2899
aS'vhigh'
p2900
ag42
ag6
aS'small'
p2901
aS'high'
p2902
aS'acc'
p2903
aa(lp2904
S'low'
p2905
aS'vhigh'
p2906
ag42
ag6
aS'med'
p2907
aS'high'
p2908
aS'acc'
p2909
aa(lp2910
S'low'
p2911
aS'vhigh'
p2912
ag42
ag6
aS'big'
p2913
aS'med'
p2914
aS'acc'
p2915
aa(lp2916
S'low'
p2917
aS'vhigh'
p2918
ag42
ag6
aS'big'
p2919
aS'high'
p2920
aS'acc'
p2921
aa(lp2922
S'low'
p2923
aS'vhigh'
p2924
ag42
aS'more'
p2925
aS'med'
p2926
aS'high'
p2927
aS'acc'
p2928
aa(lp2929
S'low'
p2930
aS'vhigh'
p2931
ag42
aS'more'
p2932
aS'big'
p2933
aS'med'
p2934
aS'acc'
p2935
aa(lp2936
S'low'
p2937
aS'vhigh'
p2938
ag42
aS'more'
p2939
aS'big'
p2940
aS'high'
p2941
aS'acc'
p2942
aa(lp2943
S'low'
p2944
aS'vhigh'
p2945
ag272
ag6
aS'small'
p2946
aS'high'
p2947
aS'acc'
p2948
aa(lp2949
S'low'
p2950
aS'vhigh'
p2951
ag272
ag6
aS'med'
p2952
aS'high'
p2953
aS'acc'
p2954
aa(lp2955
S'low'
p2956
aS'vhigh'
p2957
ag272
ag6
aS'big'
p2958
aS'med'
p2959
aS'acc'
p2960
aa(lp2961
S'low'
p2962
aS'vhigh'
p2963
ag272
ag6
aS'big'
p2964
aS'high'
p2965
aS'acc'
p2966
aa(lp2967
S'low'
p2968
aS'vhigh'
p2969
ag272
aS'more'
p2970
aS'small'
p2971
aS'high'
p2972
aS'acc'
p2973
aa(lp2974
S'low'
p2975
aS'vhigh'
p2976
ag272
aS'more'
p2977
aS'med'
p2978
aS'med'
p2979
aS'acc'
p2980
aa(lp2981
S'low'
p2982
aS'vhigh'
p2983
ag272
aS'more'
p2984
aS'med'
p2985
aS'high'
p2986
aS'acc'
p2987
aa(lp2988
S'low'
p2989
aS'vhigh'
p2990
ag272
aS'more'
p2991
aS'big'
p2992
aS'med'
p2993
aS'acc'
p2994
aa(lp2995
S'low'
p2996
aS'vhigh'
p2997
ag272
aS'more'
p2998
aS'big'
p2999
aS'high'
p3000
aS'acc'
p3001
aa(lp3002
S'low'
p3003
aS'vhigh'
p3004
ag6
ag6
aS'small'
p3005
aS'high'
p3006
aS'acc'
p3007
aa(lp3008
S'low'
p3009
aS'vhigh'
p3010
ag6
ag6
aS'med'
p3011
aS'med'
p3012
aS'acc'
p3013
aa(lp3014
S'low'
p3015
aS'vhigh'
p3016
ag6
ag6
aS'med'
p3017
aS'high'
p3018
aS'acc'
p3019
aa(lp3020
S'low'
p3021
aS'vhigh'
p3022
ag6
ag6
aS'big'
p3023
aS'med'
p3024
aS'acc'
p3025
aa(lp3026
S'low'
p3027
aS'vhigh'
p3028
ag6
ag6
aS'big'
p3029
aS'high'
p3030
aS'acc'
p3031
aa(lp3032
S'low'
p3033
aS'vhigh'
p3034
ag6
aS'more'
p3035
aS'small'
p3036
aS'high'
p3037
aS'acc'
p3038
aa(lp3039
S'low'
p3040
aS'vhigh'
p3041
ag6
aS'more'
p3042
aS'med'
p3043
aS'med'
p3044
aS'acc'
p3045
aa(lp3046
S'low'
p3047
aS'vhigh'
p3048
ag6
aS'more'
p3049
aS'med'
p3050
aS'high'
p3051
aS'acc'
p3052
aa(lp3053
S'low'
p3054
aS'vhigh'
p3055
ag6
aS'more'
p3056
aS'big'
p3057
aS'med'
p3058
aS'acc'
p3059
aa(lp3060
S'low'
p3061
aS'vhigh'
p3062
ag6
aS'more'
p3063
aS'big'
p3064
aS'high'
p3065
aS'acc'
p3066
aa(lp3067
S'low'
p3068
aS'vhigh'
p3069
aS'5more'
p3070
ag6
aS'small'
p3071
aS'high'
p3072
aS'acc'
p3073
aa(lp3074
S'low'
p3075
aS'vhigh'
p3076
aS'5more'
p3077
ag6
aS'med'
p3078
aS'med'
p3079
aS'acc'
p3080
aa(lp3081
S'low'
p3082
aS'vhigh'
p3083
aS'5more'
p3084
ag6
aS'med'
p3085
aS'high'
p3086
aS'acc'
p3087
aa(lp3088
S'low'
p3089
aS'vhigh'
p3090
aS'5more'
p3091
ag6
aS'big'
p3092
aS'med'
p3093
aS'acc'
p3094
aa(lp3095
S'low'
p3096
aS'vhigh'
p3097
aS'5more'
p3098
ag6
aS'big'
p3099
aS'high'
p3100
aS'acc'
p3101
aa(lp3102
S'low'
p3103
aS'vhigh'
p3104
aS'5more'
p3105
aS'more'
p3106
aS'small'
p3107
aS'high'
p3108
aS'acc'
p3109
aa(lp3110
S'low'
p3111
aS'vhigh'
p3112
aS'5more'
p3113
aS'more'
p3114
aS'med'
p3115
aS'med'
p3116
aS'acc'
p3117
aa(lp3118
S'low'
p3119
aS'vhigh'
p3120
aS'5more'
p3121
aS'more'
p3122
aS'med'
p3123
aS'high'
p3124
aS'acc'
p3125
aa(lp3126
S'low'
p3127
aS'vhigh'
p3128
aS'5more'
p3129
aS'more'
p3130
aS'big'
p3131
aS'med'
p3132
aS'acc'
p3133
aa(lp3134
S'low'
p3135
aS'vhigh'
p3136
aS'5more'
p3137
aS'more'
p3138
aS'big'
p3139
aS'high'
p3140
aS'acc'
p3141
aa(lp3142
S'low'
p3143
aS'high'
p3144
ag42
ag6
aS'small'
p3145
aS'med'
p3146
aS'acc'
p3147
aa(lp3148
S'low'
p3149
aS'high'
p3150
ag42
ag6
aS'small'
p3151
aS'high'
p3152
aS'acc'
p3153
aa(lp3154
S'low'
p3155
aS'high'
p3156
ag42
ag6
aS'med'
p3157
aS'med'
p3158
aS'acc'
p3159
aa(lp3160
S'low'
p3161
aS'high'
p3162
ag42
ag6
aS'med'
p3163
aS'high'
p3164
aS'acc'
p3165
aa(lp3166
S'low'
p3167
aS'high'
p3168
ag42
ag6
aS'big'
p3169
aS'med'
p3170
aS'acc'
p3171
aa(lp3172
S'low'
p3173
aS'high'
p3174
ag42
aS'more'
p3175
aS'med'
p3176
aS'med'
p3177
aS'acc'
p3178
aa(lp3179
S'low'
p3180
aS'high'
p3181
ag42
aS'more'
p3182
aS'med'
p3183
aS'high'
p3184
aS'acc'
p3185
aa(lp3186
S'low'
p3187
aS'high'
p3188
ag42
aS'more'
p3189
aS'big'
p3190
aS'med'
p3191
aS'acc'
p3192
aa(lp3193
S'low'
p3194
aS'high'
p3195
ag272
ag6
aS'small'
p3196
aS'med'
p3197
aS'acc'
p3198
aa(lp3199
S'low'
p3200
aS'high'
p3201
ag272
ag6
aS'small'
p3202
aS'high'
p3203
aS'acc'
p3204
aa(lp3205
S'low'
p3206
aS'high'
p3207
ag272
ag6
aS'med'
p3208
aS'med'
p3209
aS'acc'
p3210
aa(lp3211
S'low'
p3212
aS'high'
p3213
ag272
ag6
aS'med'
p3214
aS'high'
p3215
aS'acc'
p3216
aa(lp3217
S'low'
p3218
aS'high'
p3219
ag272
ag6
aS'big'
p3220
aS'med'
p3221
aS'acc'
p3222
aa(lp3223
S'low'
p3224
aS'high'
p3225
ag272
aS'more'
p3226
aS'small'
p3227
aS'med'
p3228
aS'acc'
p3229
aa(lp3230
S'low'
p3231
aS'high'
p3232
ag272
aS'more'
p3233
aS'small'
p3234
aS'high'
p3235
aS'acc'
p3236
aa(lp3237
S'low'
p3238
aS'high'
p3239
ag272
aS'more'
p3240
aS'med'
p3241
aS'med'
p3242
aS'acc'
p3243
aa(lp3244
S'low'
p3245
aS'high'
p3246
ag272
aS'more'
p3247
aS'big'
p3248
aS'med'
p3249
aS'acc'
p3250
aa(lp3251
S'low'
p3252
aS'high'
p3253
ag6
ag6
aS'small'
p3254
aS'med'
p3255
aS'acc'
p3256
aa(lp3257
S'low'
p3258
aS'high'
p3259
ag6
ag6
aS'small'
p3260
aS'high'
p3261
aS'acc'
p3262
aa(lp3263
S'low'
p3264
aS'high'
p3265
ag6
ag6
aS'med'
p3266
aS'med'
p3267
aS'acc'
p3268
aa(lp3269
S'low'
p3270
aS'high'
p3271
ag6
ag6
aS'big'
p3272
aS'med'
p3273
aS'acc'
p3274
aa(lp3275
S'low'
p3276
aS'high'
p3277
ag6
aS'more'
p3278
aS'small'
p3279
aS'med'
p3280
aS'acc'
p3281
aa(lp3282
S'low'
p3283
aS'high'
p3284
ag6
aS'more'
p3285
aS'small'
p3286
aS'high'
p3287
aS'acc'
p3288
aa(lp3289
S'low'
p3290
aS'high'
p3291
ag6
aS'more'
p3292
aS'med'
p3293
aS'med'
p3294
aS'acc'
p3295
aa(lp3296
S'low'
p3297
aS'high'
p3298
ag6
aS'more'
p3299
aS'big'
p3300
aS'med'
p3301
aS'acc'
p3302
aa(lp3303
S'low'
p3304
aS'high'
p3305
aS'5more'
p3306
ag6
aS'small'
p3307
aS'med'
p3308
aS'acc'
p3309
aa(lp3310
S'low'
p3311
aS'high'
p3312
aS'5more'
p3313
ag6
aS'small'
p3314
aS'high'
p3315
aS'acc'
p3316
aa(lp3317
S'low'
p3318
aS'high'
p3319
aS'5more'
p3320
ag6
aS'med'
p3321
aS'med'
p3322
aS'acc'
p3323
aa(lp3324
S'low'
p3325
aS'high'
p3326
aS'5more'
p3327
ag6
aS'big'
p3328
aS'med'
p3329
aS'acc'
p3330
aa(lp3331
S'low'
p3332
aS'high'
p3333
aS'5more'
p3334
aS'more'
p3335
aS'small'
p3336
aS'med'
p3337
aS'acc'
p3338
aa(lp3339
S'low'
p3340
aS'high'
p3341
aS'5more'
p3342
aS'more'
p3343
aS'small'
p3344
aS'high'
p3345
aS'acc'
p3346
aa(lp3347
S'low'
p3348
aS'high'
p3349
aS'5more'
p3350
aS'more'
p3351
aS'med'
p3352
aS'med'
p3353
aS'acc'
p3354
aa(lp3355
S'low'
p3356
aS'high'
p3357
aS'5more'
p3358
aS'more'
p3359
aS'big'
p3360
aS'med'
p3361
aS'acc'
p3362
aa(lp3363
S'low'
p3364
aS'med'
p3365
ag42
ag6
aS'small'
p3366
aS'med'
p3367
aS'acc'
p3368
aa(lp3369
S'low'
p3370
aS'med'
p3371
ag42
ag6
aS'med'
p3372
aS'med'
p3373
aS'acc'
p3374
aa(lp3375
S'low'
p3376
aS'med'
p3377
ag42
aS'more'
p3378
aS'med'
p3379
aS'med'
p3380
aS'acc'
p3381
aa(lp3382
S'low'
p3383
aS'med'
p3384
ag272
ag6
aS'small'
p3385
aS'med'
p3386
aS'acc'
p3387
aa(lp3388
S'low'
p3389
aS'med'
p3390
ag272
ag6
aS'med'
p3391
aS'med'
p3392
aS'acc'
p3393
aa(lp3394
S'low'
p3395
aS'med'
p3396
ag272
aS'more'
p3397
aS'small'
p3398
aS'med'
p3399
aS'acc'
p3400
aa(lp3401
S'low'
p3402
aS'med'
p3403
ag6
ag6
aS'small'
p3404
aS'med'
p3405
aS'acc'
p3406
aa(lp3407
S'low'
p3408
aS'med'
p3409
ag6
aS'more'
p3410
aS'small'
p3411
aS'med'
p3412
aS'acc'
p3413
aa(lp3414
S'low'
p3415
aS'med'
p3416
aS'5more'
p3417
ag6
aS'small'
p3418
aS'med'
p3419
aS'acc'
p3420
aa(lp3421
S'low'
p3422
aS'med'
p3423
aS'5more'
p3424
aS'more'
p3425
aS'small'
p3426
aS'med'
p3427
aS'acc'
p3428
aa(lp3429
S'low'
p3430
aS'low'
p3431
ag42
ag6
aS'small'
p3432
aS'med'
p3433
aS'acc'
p3434
aa(lp3435
S'low'
p3436
aS'low'
p3437
ag42
ag6
aS'med'
p3438
aS'med'
p3439
aS'acc'
p3440
aa(lp3441
S'low'
p3442
aS'low'
p3443
ag42
aS'more'
p3444
aS'med'
p3445
aS'med'
p3446
aS'acc'
p3447
aa(lp3448
S'low'
p3449
aS'low'
p3450
ag272
ag6
aS'small'
p3451
aS'med'
p3452
aS'acc'
p3453
aa(lp3454
S'low'
p3455
aS'low'
p3456
ag272
ag6
aS'med'
p3457
aS'med'
p3458
aS'acc'
p3459
aa(lp3460
S'low'
p3461
aS'low'
p3462
ag272
aS'more'
p3463
aS'small'
p3464
aS'med'
p3465
aS'acc'
p3466
aa(lp3467
S'low'
p3468
aS'low'
p3469
ag6
ag6
aS'small'
p3470
aS'med'
p3471
aS'acc'
p3472
aa(lp3473
S'low'
p3474
aS'low'
p3475
ag6
aS'more'
p3476
aS'small'
p3477
aS'med'
p3478
aS'acc'
p3479
aa(lp3480
S'low'
p3481
aS'low'
p3482
aS'5more'
p3483
ag6
aS'small'
p3484
aS'med'
p3485
aS'acc'
p3486
aa(lp3487
S'low'
p3488
aS'low'
p3489
aS'5more'
p3490
aS'more'
p3491
aS'small'
p3492
aS'med'
p3493
aS'acc'
p3494
aa(lp3495
S'low'
p3496
aS'med'
p3497
ag272
aS'more'
p3498
aS'med'
p3499
aS'high'
p3500
aS'vgood'
p3501
aa(lp3502
S'low'
p3503
aS'med'
p3504
ag272
aS'more'
p3505
aS'big'
p3506
aS'high'
p3507
aS'vgood'
p3508
aa(lp3509
S'low'
p3510
aS'med'
p3511
ag6
ag6
aS'med'
p3512
aS'high'
p3513
aS'vgood'
p3514
aa(lp3515
S'low'
p3516
aS'med'
p3517
ag6
ag6
aS'big'
p3518
aS'high'
p3519
aS'vgood'
p3520
aa(lp3521
S'low'
p3522
aS'med'
p3523
ag6
aS'more'
p3524
aS'med'
p3525
aS'high'
p3526
aS'vgood'
p3527
aa(lp3528
S'low'
p3529
aS'med'
p3530
ag6
aS'more'
p3531
aS'big'
p3532
aS'high'
p3533
aS'vgood'
p3534
aa(lp3535
S'low'
p3536
aS'med'
p3537
aS'5more'
p3538
ag6
aS'med'
p3539
aS'high'
p3540
aS'vgood'
p3541
aa(lp3542
S'low'
p3543
aS'med'
p3544
aS'5more'
p3545
ag6
aS'big'
p3546
aS'high'
p3547
aS'vgood'
p3548
aa(lp3549
S'low'
p3550
aS'med'
p3551
aS'5more'
p3552
aS'more'
p3553
aS'med'
p3554
aS'high'
p3555
aS'vgood'
p3556
aa(lp3557
S'low'
p3558
aS'med'
p3559
aS'5more'
p3560
aS'more'
p3561
aS'big'
p3562
aS'high'
p3563
aS'vgood'
p3564
aa(lp3565
S'low'
p3566
aS'low'
p3567
ag42
ag6
aS'big'
p3568
aS'high'
p3569
aS'vgood'
p3570
aa(lp3571
S'low'
p3572
aS'low'
p3573
ag42
aS'more'
p3574
aS'big'
p3575
aS'high'
p3576
aS'vgood'
p3577
aa(lp3578
S'low'
p3579
aS'low'
p3580
ag272
ag6
aS'big'
p3581
aS'high'
p3582
aS'vgood'
p3583
aa(lp3584
S'low'
p3585
aS'low'
p3586
ag272
aS'more'
p3587
aS'med'
p3588
aS'high'
p3589
aS'vgood'
p3590
aa(lp3591
S'low'
p3592
aS'low'
p3593
ag272
aS'more'
p3594
aS'big'
p3595
aS'high'
p3596
aS'vgood'
p3597
aa(lp3598
S'low'
p3599
aS'low'
p3600
ag6
ag6
aS'med'
p3601
aS'high'
p3602
aS'vgood'
p3603
aa(lp3604
S'low'
p3605
aS'low'
p3606
ag6
ag6
aS'big'
p3607
aS'high'
p3608
aS'vgood'
p3609
aa(lp3610
S'low'
p3611
aS'low'
p3612
ag6
aS'more'
p3613
aS'med'
p3614
aS'high'
p3615
aS'vgood'
p3616
aa(lp3617
S'low'
p3618
aS'low'
p3619
ag6
aS'more'
p3620
aS'big'
p3621
aS'high'
p3622
aS'vgood'
p3623
aa(lp3624
S'low'
p3625
aS'low'
p3626
aS'5more'
p3627
ag6
aS'med'
p3628
aS'high'
p3629
aS'vgood'
p3630
aa(lp3631
S'low'
p3632
aS'low'
p3633
aS'5more'
p3634
ag6
aS'big'
p3635
aS'high'
p3636
aS'vgood'
p3637
aa(lp3638
S'low'
p3639
aS'low'
p3640
aS'5more'
p3641
aS'more'
p3642
aS'med'
p3643
aS'high'
p3644
aS'vgood'
p3645
aa(lp3646
S'low'
p3647
aS'low'
p3648
aS'5more'
p3649
aS'more'
p3650
aS'big'
p3651
aS'high'
p3652
aS'vgood'
p3653
aa(lp3654
S'low'
p3655
aS'low'
p3656
ag42
ag6
aS'small'
p3657
aS'high'
p3658
aS'good'
p3659
aa(lp3660
S'low'
p3661
aS'low'
p3662
ag42
ag6
aS'med'
p3663
aS'high'
p3664
aS'good'
p3665
aa(lp3666
S'low'
p3667
aS'low'
p3668
ag42
ag6
aS'big'
p3669
aS'med'
p3670
aS'good'
p3671
aa(lp3672
S'low'
p3673
aS'low'
p3674
ag42
aS'more'
p3675
aS'med'
p3676
aS'high'
p3677
aS'good'
p3678
aa(lp3679
S'low'
p3680
aS'low'
p3681
ag42
aS'more'
p3682
aS'big'
p3683
aS'med'
p3684
aS'good'
p3685
aa(lp3686
S'low'
p3687
aS'low'
p3688
ag272
ag6
aS'small'
p3689
aS'high'
p3690
aS'good'
p3691
aa(lp3692
S'low'
p3693
aS'low'
p3694
ag272
ag6
aS'med'
p3695
aS'high'
p3696
aS'good'
p3697
aa(lp3698
S'low'
p3699
aS'low'
p3700
ag272
ag6
aS'big'
p3701
aS'med'
p3702
aS'good'
p3703
aa(lp3704
S'low'
p3705
aS'low'
p3706
ag272
aS'more'
p3707
aS'small'
p3708
aS'high'
p3709
aS'good'
p3710
aa(lp3711
S'low'
p3712
aS'low'
p3713
ag272
aS'more'
p3714
aS'med'
p3715
aS'med'
p3716
aS'good'
p3717
aa(lp3718
S'low'
p3719
aS'low'
p3720
ag272
aS'more'
p3721
aS'big'
p3722
aS'med'
p3723
aS'good'
p3724
aa(lp3725
S'low'
p3726
aS'low'
p3727
ag6
ag6
aS'small'
p3728
aS'high'
p3729
aS'good'
p3730
aa(lp3731
S'low'
p3732
aS'low'
p3733
ag6
ag6
aS'med'
p3734
aS'med'
p3735
aS'good'
p3736
aa(lp3737
S'low'
p3738
aS'low'
p3739
ag6
ag6
aS'big'
p3740
aS'med'
p3741
aS'good'
p3742
aa(lp3743
S'low'
p3744
aS'low'
p3745
ag6
aS'more'
p3746
aS'small'
p3747
aS'high'
p3748
aS'good'
p3749
aa(lp3750
S'low'
p3751
aS'low'
p3752
ag6
aS'more'
p3753
aS'med'
p3754
aS'med'
p3755
aS'good'
p3756
aa(lp3757
S'low'
p3758
aS'low'
p3759
ag6
aS'more'
p3760
aS'big'
p3761
aS'med'
p3762
aS'good'
p3763
aa(lp3764
S'low'
p3765
aS'low'
p3766
aS'5more'
p3767
ag6
aS'small'
p3768
aS'high'
p3769
aS'good'
p3770
aa(lp3771
S'low'
p3772
aS'low'
p3773
aS'5more'
p3774
ag6
aS'med'
p3775
aS'med'
p3776
aS'good'
p3777
aa(lp3778
S'low'
p3779
aS'low'
p3780
aS'5more'
p3781
ag6
aS'big'
p3782
aS'med'
p3783
aS'good'
p3784
aa(lp3785
S'low'
p3786
aS'low'
p3787
aS'5more'
p3788
aS'more'
p3789
aS'small'
p3790
aS'high'
p3791
aS'good'
p3792
aa(lp3793
S'low'
p3794
aS'low'
p3795
aS'5more'
p3796
aS'more'
p3797
aS'med'
p3798
aS'med'
p3799
aS'good'
p3800
aa(lp3801
S'low'
p3802
aS'low'
p3803
aS'5more'
p3804
aS'more'
p3805
aS'big'
p3806
aS'med'
p3807
aS'good'
p3808
aasS'train'
p3809
(lp3810
(lp3811
S'vhigh'
p3812
aS'vhigh'
p3813
ag42
ag42
aS'small'
p3814
aS'low'
p3815
aS'unacc'
p3816
aa(lp3817
S'vhigh'
p3818
aS'vhigh'
p3819
ag42
ag42
aS'small'
p3820
aS'med'
p3821
aS'unacc'
p3822
aa(lp3823
S'vhigh'
p3824
aS'vhigh'
p3825
ag42
ag42
aS'small'
p3826
aS'high'
p3827
aS'unacc'
p3828
aa(lp3829
S'vhigh'
p3830
aS'vhigh'
p3831
ag42
ag42
aS'med'
p3832
aS'low'
p3833
aS'unacc'
p3834
aa(lp3835
S'vhigh'
p3836
aS'vhigh'
p3837
ag42
ag42
aS'med'
p3838
aS'med'
p3839
aS'unacc'
p3840
aa(lp3841
S'vhigh'
p3842
aS'vhigh'
p3843
ag42
ag42
aS'med'
p3844
aS'high'
p3845
aS'unacc'
p3846
aa(lp3847
S'vhigh'
p3848
aS'vhigh'
p3849
ag42
ag42
aS'big'
p3850
aS'low'
p3851
aS'unacc'
p3852
aa(lp3853
S'vhigh'
p3854
aS'vhigh'
p3855
ag42
ag42
aS'big'
p3856
aS'med'
p3857
aS'unacc'
p3858
aa(lp3859
S'vhigh'
p3860
aS'vhigh'
p3861
ag42
ag42
aS'big'
p3862
aS'high'
p3863
aS'unacc'
p3864
aa(lp3865
S'vhigh'
p3866
aS'vhigh'
p3867
ag42
ag6
aS'small'
p3868
aS'low'
p3869
aS'unacc'
p3870
aa(lp3871
S'vhigh'
p3872
aS'vhigh'
p3873
ag42
ag6
aS'small'
p3874
aS'med'
p3875
aS'unacc'
p3876
aa(lp3877
S'vhigh'
p3878
aS'vhigh'
p3879
ag42
ag6
aS'small'
p3880
aS'high'
p3881
aS'unacc'
p3882
aa(lp3883
S'vhigh'
p3884
aS'vhigh'
p3885
ag42
ag6
aS'med'
p3886
aS'low'
p3887
aS'unacc'
p3888
aa(lp3889
S'vhigh'
p3890
aS'vhigh'
p3891
ag42
ag6
aS'med'
p3892
aS'med'
p3893
aS'unacc'
p3894
aa(lp3895
S'vhigh'
p3896
aS'vhigh'
p3897
ag42
ag6
aS'med'
p3898
aS'high'
p3899
aS'unacc'
p3900
aa(lp3901
S'vhigh'
p3902
aS'vhigh'
p3903
ag42
ag6
aS'big'
p3904
aS'low'
p3905
aS'unacc'
p3906
aa(lp3907
S'vhigh'
p3908
aS'vhigh'
p3909
ag42
ag6
aS'big'
p3910
aS'med'
p3911
aS'unacc'
p3912
aa(lp3913
S'vhigh'
p3914
aS'vhigh'
p3915
ag42
ag6
aS'big'
p3916
aS'high'
p3917
aS'unacc'
p3918
aa(lp3919
S'vhigh'
p3920
aS'vhigh'
p3921
ag42
aS'more'
p3922
aS'small'
p3923
aS'low'
p3924
aS'unacc'
p3925
aa(lp3926
S'vhigh'
p3927
aS'vhigh'
p3928
ag42
aS'more'
p3929
aS'small'
p3930
aS'med'
p3931
aS'unacc'
p3932
aa(lp3933
S'vhigh'
p3934
aS'vhigh'
p3935
ag42
aS'more'
p3936
aS'small'
p3937
aS'high'
p3938
aS'unacc'
p3939
aa(lp3940
S'vhigh'
p3941
aS'vhigh'
p3942
ag42
aS'more'
p3943
aS'med'
p3944
aS'low'
p3945
aS'unacc'
p3946
aa(lp3947
S'vhigh'
p3948
aS'vhigh'
p3949
ag42
aS'more'
p3950
aS'med'
p3951
aS'med'
p3952
aS'unacc'
p3953
aa(lp3954
S'vhigh'
p3955
aS'vhigh'
p3956
ag42
aS'more'
p3957
aS'med'
p3958
aS'high'
p3959
aS'unacc'
p3960
aa(lp3961
S'vhigh'
p3962
aS'vhigh'
p3963
ag42
aS'more'
p3964
aS'big'
p3965
aS'low'
p3966
aS'unacc'
p3967
aa(lp3968
S'vhigh'
p3969
aS'vhigh'
p3970
ag42
aS'more'
p3971
aS'big'
p3972
aS'med'
p3973
aS'unacc'
p3974
aa(lp3975
S'vhigh'
p3976
aS'vhigh'
p3977
ag42
aS'more'
p3978
aS'big'
p3979
aS'high'
p3980
aS'unacc'
p3981
aa(lp3982
S'vhigh'
p3983
aS'vhigh'
p3984
ag272
ag42
aS'small'
p3985
aS'low'
p3986
aS'unacc'
p3987
aa(lp3988
S'vhigh'
p3989
aS'vhigh'
p3990
ag272
ag42
aS'small'
p3991
aS'med'
p3992
aS'unacc'
p3993
aa(lp3994
S'vhigh'
p3995
aS'vhigh'
p3996
ag272
ag42
aS'small'
p3997
aS'high'
p3998
aS'unacc'
p3999
aa(lp4000
S'vhigh'
p4001
aS'vhigh'
p4002
ag272
ag42
aS'med'
p4003
aS'low'
p4004
aS'unacc'
p4005
aa(lp4006
S'vhigh'
p4007
aS'vhigh'
p4008
ag272
ag42
aS'med'
p4009
aS'med'
p4010
aS'unacc'
p4011
aa(lp4012
S'vhigh'
p4013
aS'vhigh'
p4014
ag272
ag42
aS'med'
p4015
aS'high'
p4016
aS'unacc'
p4017
aa(lp4018
S'vhigh'
p4019
aS'vhigh'
p4020
ag272
ag42
aS'big'
p4021
aS'low'
p4022
aS'unacc'
p4023
aa(lp4024
S'vhigh'
p4025
aS'vhigh'
p4026
ag272
ag42
aS'big'
p4027
aS'med'
p4028
aS'unacc'
p4029
aa(lp4030
S'vhigh'
p4031
aS'vhigh'
p4032
ag272
ag42
aS'big'
p4033
aS'high'
p4034
aS'unacc'
p4035
aa(lp4036
S'vhigh'
p4037
aS'vhigh'
p4038
ag272
ag6
aS'small'
p4039
aS'low'
p4040
aS'unacc'
p4041
aa(lp4042
S'vhigh'
p4043
aS'vhigh'
p4044
ag272
ag6
aS'small'
p4045
aS'med'
p4046
aS'unacc'
p4047
aa(lp4048
S'vhigh'
p4049
aS'vhigh'
p4050
ag272
ag6
aS'small'
p4051
aS'high'
p4052
aS'unacc'
p4053
aa(lp4054
S'vhigh'
p4055
aS'vhigh'
p4056
ag272
ag6
aS'med'
p4057
aS'low'
p4058
aS'unacc'
p4059
aa(lp4060
S'vhigh'
p4061
aS'vhigh'
p4062
ag272
ag6
aS'med'
p4063
aS'med'
p4064
aS'unacc'
p4065
aa(lp4066
S'vhigh'
p4067
aS'vhigh'
p4068
ag272
ag6
aS'med'
p4069
aS'high'
p4070
aS'unacc'
p4071
aa(lp4072
S'vhigh'
p4073
aS'vhigh'
p4074
ag272
ag6
aS'big'
p4075
aS'low'
p4076
aS'unacc'
p4077
aa(lp4078
S'vhigh'
p4079
aS'vhigh'
p4080
ag272
ag6
aS'big'
p4081
aS'med'
p4082
aS'unacc'
p4083
aa(lp4084
S'vhigh'
p4085
aS'vhigh'
p4086
ag272
ag6
aS'big'
p4087
aS'high'
p4088
aS'unacc'
p4089
aa(lp4090
S'vhigh'
p4091
aS'vhigh'
p4092
ag272
aS'more'
p4093
aS'small'
p4094
aS'low'
p4095
aS'unacc'
p4096
aa(lp4097
S'vhigh'
p4098
aS'vhigh'
p4099
ag272
aS'more'
p4100
aS'small'
p4101
aS'med'
p4102
aS'unacc'
p4103
aa(lp4104
S'vhigh'
p4105
aS'vhigh'
p4106
ag272
aS'more'
p4107
aS'small'
p4108
aS'high'
p4109
aS'unacc'
p4110
aa(lp4111
S'vhigh'
p4112
aS'vhigh'
p4113
ag272
aS'more'
p4114
aS'med'
p4115
aS'low'
p4116
aS'unacc'
p4117
aa(lp4118
S'vhigh'
p4119
aS'vhigh'
p4120
ag272
aS'more'
p4121
aS'med'
p4122
aS'med'
p4123
aS'unacc'
p4124
aa(lp4125
S'vhigh'
p4126
aS'vhigh'
p4127
ag272
aS'more'
p4128
aS'med'
p4129
aS'high'
p4130
aS'unacc'
p4131
aa(lp4132
S'vhigh'
p4133
aS'vhigh'
p4134
ag272
aS'more'
p4135
aS'big'
p4136
aS'low'
p4137
aS'unacc'
p4138
aa(lp4139
S'vhigh'
p4140
aS'vhigh'
p4141
ag272
aS'more'
p4142
aS'big'
p4143
aS'med'
p4144
aS'unacc'
p4145
aa(lp4146
S'vhigh'
p4147
aS'vhigh'
p4148
ag272
aS'more'
p4149
aS'big'
p4150
aS'high'
p4151
aS'unacc'
p4152
aa(lp4153
S'vhigh'
p4154
aS'vhigh'
p4155
ag6
ag42
aS'small'
p4156
aS'low'
p4157
aS'unacc'
p4158
aa(lp4159
S'vhigh'
p4160
aS'vhigh'
p4161
ag6
ag42
aS'small'
p4162
aS'med'
p4163
aS'unacc'
p4164
aa(lp4165
S'vhigh'
p4166
aS'vhigh'
p4167
ag6
ag42
aS'small'
p4168
aS'high'
p4169
aS'unacc'
p4170
aa(lp4171
S'vhigh'
p4172
aS'vhigh'
p4173
ag6
ag42
aS'med'
p4174
aS'low'
p4175
aS'unacc'
p4176
aa(lp4177
S'vhigh'
p4178
aS'vhigh'
p4179
ag6
ag42
aS'med'
p4180
aS'med'
p4181
aS'unacc'
p4182
aa(lp4183
S'vhigh'
p4184
aS'vhigh'
p4185
ag6
ag42
aS'med'
p4186
aS'high'
p4187
aS'unacc'
p4188
aa(lp4189
S'vhigh'
p4190
aS'vhigh'
p4191
ag6
ag42
aS'big'
p4192
aS'low'
p4193
aS'unacc'
p4194
aa(lp4195
S'vhigh'
p4196
aS'vhigh'
p4197
ag6
ag42
aS'big'
p4198
aS'med'
p4199
aS'unacc'
p4200
aa(lp4201
S'vhigh'
p4202
aS'vhigh'
p4203
ag6
ag42
aS'big'
p4204
aS'high'
p4205
aS'unacc'
p4206
aa(lp4207
S'vhigh'
p4208
aS'vhigh'
p4209
ag6
ag6
aS'small'
p4210
aS'low'
p4211
aS'unacc'
p4212
aa(lp4213
S'vhigh'
p4214
aS'vhigh'
p4215
ag6
ag6
aS'small'
p4216
aS'med'
p4217
aS'unacc'
p4218
aa(lp4219
S'vhigh'
p4220
aS'vhigh'
p4221
ag6
ag6
aS'small'
p4222
aS'high'
p4223
aS'unacc'
p4224
aa(lp4225
S'vhigh'
p4226
aS'vhigh'
p4227
ag6
ag6
aS'med'
p4228
aS'low'
p4229
aS'unacc'
p4230
aa(lp4231
S'vhigh'
p4232
aS'vhigh'
p4233
ag6
ag6
aS'med'
p4234
aS'med'
p4235
aS'unacc'
p4236
aa(lp4237
S'vhigh'
p4238
aS'vhigh'
p4239
ag6
ag6
aS'med'
p4240
aS'high'
p4241
aS'unacc'
p4242
aa(lp4243
S'vhigh'
p4244
aS'vhigh'
p4245
ag6
ag6
aS'big'
p4246
aS'low'
p4247
aS'unacc'
p4248
aa(lp4249
S'vhigh'
p4250
aS'vhigh'
p4251
ag6
ag6
aS'big'
p4252
aS'med'
p4253
aS'unacc'
p4254
aa(lp4255
S'vhigh'
p4256
aS'vhigh'
p4257
ag6
ag6
aS'big'
p4258
aS'high'
p4259
aS'unacc'
p4260
aa(lp4261
S'vhigh'
p4262
aS'vhigh'
p4263
ag6
aS'more'
p4264
aS'small'
p4265
aS'low'
p4266
aS'unacc'
p4267
aa(lp4268
S'vhigh'
p4269
aS'vhigh'
p4270
ag6
aS'more'
p4271
aS'small'
p4272
aS'med'
p4273
aS'unacc'
p4274
aa(lp4275
S'vhigh'
p4276
aS'vhigh'
p4277
ag6
aS'more'
p4278
aS'small'
p4279
aS'high'
p4280
aS'unacc'
p4281
aa(lp4282
S'vhigh'
p4283
aS'vhigh'
p4284
ag6
aS'more'
p4285
aS'med'
p4286
aS'low'
p4287
aS'unacc'
p4288
aa(lp4289
S'vhigh'
p4290
aS'vhigh'
p4291
ag6
aS'more'
p4292
aS'med'
p4293
aS'med'
p4294
aS'unacc'
p4295
aa(lp4296
S'vhigh'
p4297
aS'vhigh'
p4298
ag6
aS'more'
p4299
aS'med'
p4300
aS'high'
p4301
aS'unacc'
p4302
aa(lp4303
S'vhigh'
p4304
aS'vhigh'
p4305
ag6
aS'more'
p4306
aS'big'
p4307
aS'low'
p4308
aS'unacc'
p4309
aa(lp4310
S'vhigh'
p4311
aS'vhigh'
p4312
ag6
aS'more'
p4313
aS'big'
p4314
aS'med'
p4315
aS'unacc'
p4316
aa(lp4317
S'vhigh'
p4318
aS'vhigh'
p4319
ag6
aS'more'
p4320
aS'big'
p4321
aS'high'
p4322
aS'unacc'
p4323
aa(lp4324
S'vhigh'
p4325
aS'vhigh'
p4326
aS'5more'
p4327
ag42
aS'small'
p4328
aS'low'
p4329
aS'unacc'
p4330
aa(lp4331
S'vhigh'
p4332
aS'vhigh'
p4333
aS'5more'
p4334
ag42
aS'small'
p4335
aS'med'
p4336
aS'unacc'
p4337
aa(lp4338
S'vhigh'
p4339
aS'vhigh'
p4340
aS'5more'
p4341
ag42
aS'small'
p4342
aS'high'
p4343
aS'unacc'
p4344
aa(lp4345
S'vhigh'
p4346
aS'vhigh'
p4347
aS'5more'
p4348
ag42
aS'med'
p4349
aS'low'
p4350
aS'unacc'
p4351
aa(lp4352
S'vhigh'
p4353
aS'vhigh'
p4354
aS'5more'
p4355
ag42
aS'med'
p4356
aS'med'
p4357
aS'unacc'
p4358
aa(lp4359
S'vhigh'
p4360
aS'vhigh'
p4361
aS'5more'
p4362
ag42
aS'med'
p4363
aS'high'
p4364
aS'unacc'
p4365
aa(lp4366
S'vhigh'
p4367
aS'vhigh'
p4368
aS'5more'
p4369
ag42
aS'big'
p4370
aS'low'
p4371
aS'unacc'
p4372
aa(lp4373
S'vhigh'
p4374
aS'vhigh'
p4375
aS'5more'
p4376
ag42
aS'big'
p4377
aS'med'
p4378
aS'unacc'
p4379
aa(lp4380
S'vhigh'
p4381
aS'vhigh'
p4382
aS'5more'
p4383
ag42
aS'big'
p4384
aS'high'
p4385
aS'unacc'
p4386
aa(lp4387
S'vhigh'
p4388
aS'vhigh'
p4389
aS'5more'
p4390
ag6
aS'small'
p4391
aS'low'
p4392
aS'unacc'
p4393
aa(lp4394
S'vhigh'
p4395
aS'vhigh'
p4396
aS'5more'
p4397
ag6
aS'small'
p4398
aS'med'
p4399
aS'unacc'
p4400
aa(lp4401
S'vhigh'
p4402
aS'vhigh'
p4403
aS'5more'
p4404
ag6
aS'small'
p4405
aS'high'
p4406
aS'unacc'
p4407
aa(lp4408
S'vhigh'
p4409
aS'vhigh'
p4410
aS'5more'
p4411
ag6
aS'med'
p4412
aS'low'
p4413
aS'unacc'
p4414
aa(lp4415
S'vhigh'
p4416
aS'vhigh'
p4417
aS'5more'
p4418
ag6
aS'med'
p4419
aS'med'
p4420
aS'unacc'
p4421
aa(lp4422
S'vhigh'
p4423
aS'vhigh'
p4424
aS'5more'
p4425
ag6
aS'med'
p4426
aS'high'
p4427
aS'unacc'
p4428
aa(lp4429
S'vhigh'
p4430
aS'vhigh'
p4431
aS'5more'
p4432
ag6
aS'big'
p4433
aS'low'
p4434
aS'unacc'
p4435
aa(lp4436
S'vhigh'
p4437
aS'vhigh'
p4438
aS'5more'
p4439
ag6
aS'big'
p4440
aS'med'
p4441
aS'unacc'
p4442
aa(lp4443
S'vhigh'
p4444
aS'vhigh'
p4445
aS'5more'
p4446
ag6
aS'big'
p4447
aS'high'
p4448
aS'unacc'
p4449
aa(lp4450
S'vhigh'
p4451
aS'vhigh'
p4452
aS'5more'
p4453
aS'more'
p4454
aS'small'
p4455
aS'low'
p4456
aS'unacc'
p4457
aa(lp4458
S'vhigh'
p4459
aS'vhigh'
p4460
aS'5more'
p4461
aS'more'
p4462
aS'small'
p4463
aS'med'
p4464
aS'unacc'
p4465
aa(lp4466
S'vhigh'
p4467
aS'vhigh'
p4468
aS'5more'
p4469
aS'more'
p4470
aS'small'
p4471
aS'high'
p4472
aS'unacc'
p4473
aa(lp4474
S'vhigh'
p4475
aS'vhigh'
p4476
aS'5more'
p4477
aS'more'
p4478
aS'med'
p4479
aS'low'
p4480
aS'unacc'
p4481
aa(lp4482
S'vhigh'
p4483
aS'vhigh'
p4484
aS'5more'
p4485
aS'more'
p4486
aS'med'
p4487
aS'med'
p4488
aS'unacc'
p4489
aa(lp4490
S'vhigh'
p4491
aS'vhigh'
p4492
aS'5more'
p4493
aS'more'
p4494
aS'med'
p4495
aS'high'
p4496
aS'unacc'
p4497
aa(lp4498
S'vhigh'
p4499
aS'vhigh'
p4500
aS'5more'
p4501
aS'more'
p4502
aS'big'
p4503
aS'low'
p4504
aS'unacc'
p4505
aa(lp4506
S'vhigh'
p4507
aS'vhigh'
p4508
aS'5more'
p4509
aS'more'
p4510
aS'big'
p4511
aS'med'
p4512
aS'unacc'
p4513
aa(lp4514
S'vhigh'
p4515
aS'vhigh'
p4516
aS'5more'
p4517
aS'more'
p4518
aS'big'
p4519
aS'high'
p4520
aS'unacc'
p4521
aa(lp4522
S'vhigh'
p4523
aS'high'
p4524
ag42
ag42
aS'small'
p4525
aS'low'
p4526
aS'unacc'
p4527
aa(lp4528
S'vhigh'
p4529
aS'high'
p4530
ag42
ag42
aS'small'
p4531
aS'med'
p4532
aS'unacc'
p4533
aa(lp4534
S'vhigh'
p4535
aS'high'
p4536
ag42
ag42
aS'small'
p4537
aS'high'
p4538
aS'unacc'
p4539
aa(lp4540
S'vhigh'
p4541
aS'high'
p4542
ag42
ag42
aS'med'
p4543
aS'low'
p4544
aS'unacc'
p4545
aa(lp4546
S'vhigh'
p4547
aS'high'
p4548
ag42
ag42
aS'med'
p4549
aS'med'
p4550
aS'unacc'
p4551
aa(lp4552
S'vhigh'
p4553
aS'high'
p4554
ag42
ag42
aS'med'
p4555
aS'high'
p4556
aS'unacc'
p4557
aa(lp4558
S'vhigh'
p4559
aS'high'
p4560
ag42
ag42
aS'big'
p4561
aS'low'
p4562
aS'unacc'
p4563
aa(lp4564
S'vhigh'
p4565
aS'high'
p4566
ag42
ag42
aS'big'
p4567
aS'med'
p4568
aS'unacc'
p4569
aa(lp4570
S'vhigh'
p4571
aS'high'
p4572
ag42
ag42
aS'big'
p4573
aS'high'
p4574
aS'unacc'
p4575
aa(lp4576
S'vhigh'
p4577
aS'high'
p4578
ag42
ag6
aS'small'
p4579
aS'low'
p4580
aS'unacc'
p4581
aa(lp4582
S'vhigh'
p4583
aS'high'
p4584
ag42
ag6
aS'small'
p4585
aS'med'
p4586
aS'unacc'
p4587
aa(lp4588
S'vhigh'
p4589
aS'high'
p4590
ag42
ag6
aS'small'
p4591
aS'high'
p4592
aS'unacc'
p4593
aa(lp4594
S'vhigh'
p4595
aS'high'
p4596
ag42
ag6
aS'med'
p4597
aS'low'
p4598
aS'unacc'
p4599
aa(lp4600
S'vhigh'
p4601
aS'high'
p4602
ag42
ag6
aS'med'
p4603
aS'med'
p4604
aS'unacc'
p4605
aa(lp4606
S'vhigh'
p4607
aS'high'
p4608
ag42
ag6
aS'med'
p4609
aS'high'
p4610
aS'unacc'
p4611
aa(lp4612
S'vhigh'
p4613
aS'high'
p4614
ag42
ag6
aS'big'
p4615
aS'low'
p4616
aS'unacc'
p4617
aa(lp4618
S'vhigh'
p4619
aS'high'
p4620
ag42
ag6
aS'big'
p4621
aS'med'
p4622
aS'unacc'
p4623
aa(lp4624
S'vhigh'
p4625
aS'high'
p4626
ag42
ag6
aS'big'
p4627
aS'high'
p4628
aS'unacc'
p4629
aa(lp4630
S'vhigh'
p4631
aS'high'
p4632
ag42
aS'more'
p4633
aS'small'
p4634
aS'low'
p4635
aS'unacc'
p4636
aa(lp4637
S'vhigh'
p4638
aS'high'
p4639
ag42
aS'more'
p4640
aS'small'
p4641
aS'med'
p4642
aS'unacc'
p4643
aa(lp4644
S'vhigh'
p4645
aS'high'
p4646
ag42
aS'more'
p4647
aS'small'
p4648
aS'high'
p4649
aS'unacc'
p4650
aa(lp4651
S'vhigh'
p4652
aS'high'
p4653
ag42
aS'more'
p4654
aS'med'
p4655
aS'low'
p4656
aS'unacc'
p4657
aa(lp4658
S'vhigh'
p4659
aS'high'
p4660
ag42
aS'more'
p4661
aS'med'
p4662
aS'med'
p4663
aS'unacc'
p4664
aa(lp4665
S'vhigh'
p4666
aS'high'
p4667
ag42
aS'more'
p4668
aS'med'
p4669
aS'high'
p4670
aS'unacc'
p4671
aa(lp4672
S'vhigh'
p4673
aS'high'
p4674
ag42
aS'more'
p4675
aS'big'
p4676
aS'low'
p4677
aS'unacc'
p4678
aa(lp4679
S'vhigh'
p4680
aS'high'
p4681
ag42
aS'more'
p4682
aS'big'
p4683
aS'med'
p4684
aS'unacc'
p4685
aa(lp4686
S'vhigh'
p4687
aS'high'
p4688
ag42
aS'more'
p4689
aS'big'
p4690
aS'high'
p4691
aS'unacc'
p4692
aa(lp4693
S'vhigh'
p4694
aS'high'
p4695
ag272
ag42
aS'small'
p4696
aS'low'
p4697
aS'unacc'
p4698
aa(lp4699
S'vhigh'
p4700
aS'high'
p4701
ag272
ag42
aS'small'
p4702
aS'med'
p4703
aS'unacc'
p4704
aa(lp4705
S'vhigh'
p4706
aS'high'
p4707
ag272
ag42
aS'small'
p4708
aS'high'
p4709
aS'unacc'
p4710
aa(lp4711
S'vhigh'
p4712
aS'high'
p4713
ag272
ag42
aS'med'
p4714
aS'low'
p4715
aS'unacc'
p4716
aa(lp4717
S'vhigh'
p4718
aS'high'
p4719
ag272
ag42
aS'med'
p4720
aS'med'
p4721
aS'unacc'
p4722
aa(lp4723
S'vhigh'
p4724
aS'high'
p4725
ag272
ag42
aS'med'
p4726
aS'high'
p4727
aS'unacc'
p4728
aa(lp4729
S'vhigh'
p4730
aS'high'
p4731
ag272
ag42
aS'big'
p4732
aS'low'
p4733
aS'unacc'
p4734
aa(lp4735
S'vhigh'
p4736
aS'high'
p4737
ag272
ag42
aS'big'
p4738
aS'med'
p4739
aS'unacc'
p4740
aa(lp4741
S'vhigh'
p4742
aS'high'
p4743
ag272
ag42
aS'big'
p4744
aS'high'
p4745
aS'unacc'
p4746
aa(lp4747
S'vhigh'
p4748
aS'high'
p4749
ag272
ag6
aS'small'
p4750
aS'low'
p4751
aS'unacc'
p4752
aa(lp4753
S'vhigh'
p4754
aS'high'
p4755
ag272
ag6
aS'small'
p4756
aS'med'
p4757
aS'unacc'
p4758
aa(lp4759
S'vhigh'
p4760
aS'high'
p4761
ag272
ag6
aS'small'
p4762
aS'high'
p4763
aS'unacc'
p4764
aa(lp4765
S'vhigh'
p4766
aS'high'
p4767
ag272
ag6
aS'med'
p4768
aS'low'
p4769
aS'unacc'
p4770
aa(lp4771
S'vhigh'
p4772
aS'high'
p4773
ag272
ag6
aS'med'
p4774
aS'med'
p4775
aS'unacc'
p4776
aa(lp4777
S'vhigh'
p4778
aS'high'
p4779
ag272
ag6
aS'med'
p4780
aS'high'
p4781
aS'unacc'
p4782
aa(lp4783
S'vhigh'
p4784
aS'high'
p4785
ag272
ag6
aS'big'
p4786
aS'low'
p4787
aS'unacc'
p4788
aa(lp4789
S'vhigh'
p4790
aS'high'
p4791
ag272
ag6
aS'big'
p4792
aS'med'
p4793
aS'unacc'
p4794
aa(lp4795
S'vhigh'
p4796
aS'high'
p4797
ag272
ag6
aS'big'
p4798
aS'high'
p4799
aS'unacc'
p4800
aa(lp4801
S'vhigh'
p4802
aS'high'
p4803
ag272
aS'more'
p4804
aS'small'
p4805
aS'low'
p4806
aS'unacc'
p4807
aa(lp4808
S'vhigh'
p4809
aS'high'
p4810
ag272
aS'more'
p4811
aS'small'
p4812
aS'med'
p4813
aS'unacc'
p4814
aa(lp4815
S'vhigh'
p4816
aS'high'
p4817
ag272
aS'more'
p4818
aS'small'
p4819
aS'high'
p4820
aS'unacc'
p4821
aa(lp4822
S'vhigh'
p4823
aS'high'
p4824
ag272
aS'more'
p4825
aS'med'
p4826
aS'low'
p4827
aS'unacc'
p4828
aa(lp4829
S'vhigh'
p4830
aS'high'
p4831
ag272
aS'more'
p4832
aS'med'
p4833
aS'med'
p4834
aS'unacc'
p4835
aa(lp4836
S'vhigh'
p4837
aS'high'
p4838
ag272
aS'more'
p4839
aS'med'
p4840
aS'high'
p4841
aS'unacc'
p4842
aa(lp4843
S'vhigh'
p4844
aS'high'
p4845
ag272
aS'more'
p4846
aS'big'
p4847
aS'low'
p4848
aS'unacc'
p4849
aa(lp4850
S'vhigh'
p4851
aS'high'
p4852
ag272
aS'more'
p4853
aS'big'
p4854
aS'med'
p4855
aS'unacc'
p4856
aa(lp4857
S'vhigh'
p4858
aS'high'
p4859
ag272
aS'more'
p4860
aS'big'
p4861
aS'high'
p4862
aS'unacc'
p4863
aa(lp4864
S'vhigh'
p4865
aS'high'
p4866
ag6
ag42
aS'small'
p4867
aS'low'
p4868
aS'unacc'
p4869
aa(lp4870
S'vhigh'
p4871
aS'high'
p4872
ag6
ag42
aS'small'
p4873
aS'med'
p4874
aS'unacc'
p4875
aa(lp4876
S'vhigh'
p4877
aS'high'
p4878
ag6
ag42
aS'small'
p4879
aS'high'
p4880
aS'unacc'
p4881
aa(lp4882
S'vhigh'
p4883
aS'high'
p4884
ag6
ag42
aS'med'
p4885
aS'low'
p4886
aS'unacc'
p4887
aa(lp4888
S'vhigh'
p4889
aS'high'
p4890
ag6
ag42
aS'med'
p4891
aS'med'
p4892
aS'unacc'
p4893
aa(lp4894
S'vhigh'
p4895
aS'high'
p4896
ag6
ag42
aS'med'
p4897
aS'high'
p4898
aS'unacc'
p4899
aa(lp4900
S'vhigh'
p4901
aS'high'
p4902
ag6
ag42
aS'big'
p4903
aS'low'
p4904
aS'unacc'
p4905
aa(lp4906
S'vhigh'
p4907
aS'high'
p4908
ag6
ag42
aS'big'
p4909
aS'med'
p4910
aS'unacc'
p4911
aa(lp4912
S'vhigh'
p4913
aS'high'
p4914
ag6
ag42
aS'big'
p4915
aS'high'
p4916
aS'unacc'
p4917
aa(lp4918
S'vhigh'
p4919
aS'high'
p4920
ag6
ag6
aS'small'
p4921
aS'low'
p4922
aS'unacc'
p4923
aa(lp4924
S'vhigh'
p4925
aS'high'
p4926
ag6
ag6
aS'small'
p4927
aS'med'
p4928
aS'unacc'
p4929
aa(lp4930
S'vhigh'
p4931
aS'high'
p4932
ag6
ag6
aS'small'
p4933
aS'high'
p4934
aS'unacc'
p4935
aa(lp4936
S'vhigh'
p4937
aS'high'
p4938
ag6
ag6
aS'med'
p4939
aS'low'
p4940
aS'unacc'
p4941
aa(lp4942
S'vhigh'
p4943
aS'high'
p4944
ag6
ag6
aS'med'
p4945
aS'med'
p4946
aS'unacc'
p4947
aa(lp4948
S'vhigh'
p4949
aS'high'
p4950
ag6
ag6
aS'med'
p4951
aS'high'
p4952
aS'unacc'
p4953
aa(lp4954
S'vhigh'
p4955
aS'high'
p4956
ag6
ag6
aS'big'
p4957
aS'low'
p4958
aS'unacc'
p4959
aa(lp4960
S'vhigh'
p4961
aS'high'
p4962
ag6
ag6
aS'big'
p4963
aS'med'
p4964
aS'unacc'
p4965
aa(lp4966
S'vhigh'
p4967
aS'high'
p4968
ag6
ag6
aS'big'
p4969
aS'high'
p4970
aS'unacc'
p4971
aa(lp4972
S'vhigh'
p4973
aS'high'
p4974
ag6
aS'more'
p4975
aS'small'
p4976
aS'low'
p4977
aS'unacc'
p4978
aa(lp4979
S'vhigh'
p4980
aS'high'
p4981
ag6
aS'more'
p4982
aS'small'
p4983
aS'med'
p4984
aS'unacc'
p4985
aa(lp4986
S'vhigh'
p4987
aS'high'
p4988
ag6
aS'more'
p4989
aS'small'
p4990
aS'high'
p4991
aS'unacc'
p4992
aa(lp4993
S'vhigh'
p4994
aS'high'
p4995
ag6
aS'more'
p4996
aS'med'
p4997
aS'low'
p4998
aS'unacc'
p4999
aa(lp5000
S'vhigh'
p5001
aS'high'
p5002
ag6
aS'more'
p5003
aS'med'
p5004
aS'med'
p5005
aS'unacc'
p5006
aa(lp5007
S'vhigh'
p5008
aS'high'
p5009
ag6
aS'more'
p5010
aS'med'
p5011
aS'high'
p5012
aS'unacc'
p5013
aa(lp5014
S'vhigh'
p5015
aS'high'
p5016
ag6
aS'more'
p5017
aS'big'
p5018
aS'low'
p5019
aS'unacc'
p5020
aa(lp5021
S'vhigh'
p5022
aS'high'
p5023
ag6
aS'more'
p5024
aS'big'
p5025
aS'med'
p5026
aS'unacc'
p5027
aa(lp5028
S'vhigh'
p5029
aS'high'
p5030
ag6
aS'more'
p5031
aS'big'
p5032
aS'high'
p5033
aS'unacc'
p5034
aa(lp5035
S'vhigh'
p5036
aS'high'
p5037
aS'5more'
p5038
ag42
aS'small'
p5039
aS'low'
p5040
aS'unacc'
p5041
aa(lp5042
S'vhigh'
p5043
aS'high'
p5044
aS'5more'
p5045
ag42
aS'small'
p5046
aS'med'
p5047
aS'unacc'
p5048
aa(lp5049
S'vhigh'
p5050
aS'high'
p5051
aS'5more'
p5052
ag42
aS'small'
p5053
aS'high'
p5054
aS'unacc'
p5055
aa(lp5056
S'vhigh'
p5057
aS'high'
p5058
aS'5more'
p5059
ag42
aS'med'
p5060
aS'low'
p5061
aS'unacc'
p5062
aa(lp5063
S'vhigh'
p5064
aS'high'
p5065
aS'5more'
p5066
ag42
aS'med'
p5067
aS'med'
p5068
aS'unacc'
p5069
aa(lp5070
S'vhigh'
p5071
aS'high'
p5072
aS'5more'
p5073
ag42
aS'med'
p5074
aS'high'
p5075
aS'unacc'
p5076
aa(lp5077
S'vhigh'
p5078
aS'high'
p5079
aS'5more'
p5080
ag42
aS'big'
p5081
aS'low'
p5082
aS'unacc'
p5083
aa(lp5084
S'vhigh'
p5085
aS'high'
p5086
aS'5more'
p5087
ag42
aS'big'
p5088
aS'med'
p5089
aS'unacc'
p5090
aa(lp5091
S'vhigh'
p5092
aS'high'
p5093
aS'5more'
p5094
ag42
aS'big'
p5095
aS'high'
p5096
aS'unacc'
p5097
aa(lp5098
S'vhigh'
p5099
aS'high'
p5100
aS'5more'
p5101
ag6
aS'small'
p5102
aS'low'
p5103
aS'unacc'
p5104
aa(lp5105
S'vhigh'
p5106
aS'high'
p5107
aS'5more'
p5108
ag6
aS'small'
p5109
aS'med'
p5110
aS'unacc'
p5111
aa(lp5112
S'vhigh'
p5113
aS'high'
p5114
aS'5more'
p5115
ag6
aS'small'
p5116
aS'high'
p5117
aS'unacc'
p5118
aa(lp5119
S'vhigh'
p5120
aS'high'
p5121
aS'5more'
p5122
ag6
aS'med'
p5123
aS'low'
p5124
aS'unacc'
p5125
aa(lp5126
S'vhigh'
p5127
aS'high'
p5128
aS'5more'
p5129
ag6
aS'med'
p5130
aS'med'
p5131
aS'unacc'
p5132
aa(lp5133
S'vhigh'
p5134
aS'high'
p5135
aS'5more'
p5136
ag6
aS'med'
p5137
aS'high'
p5138
aS'unacc'
p5139
aa(lp5140
S'vhigh'
p5141
aS'high'
p5142
aS'5more'
p5143
ag6
aS'big'
p5144
aS'low'
p5145
aS'unacc'
p5146
aa(lp5147
S'vhigh'
p5148
aS'high'
p5149
aS'5more'
p5150
ag6
aS'big'
p5151
aS'med'
p5152
aS'unacc'
p5153
aa(lp5154
S'vhigh'
p5155
aS'high'
p5156
aS'5more'
p5157
ag6
aS'big'
p5158
aS'high'
p5159
aS'unacc'
p5160
aa(lp5161
S'vhigh'
p5162
aS'high'
p5163
aS'5more'
p5164
aS'more'
p5165
aS'small'
p5166
aS'low'
p5167
aS'unacc'
p5168
aa(lp5169
S'vhigh'
p5170
aS'high'
p5171
aS'5more'
p5172
aS'more'
p5173
aS'small'
p5174
aS'med'
p5175
aS'unacc'
p5176
aa(lp5177
S'vhigh'
p5178
aS'high'
p5179
aS'5more'
p5180
aS'more'
p5181
aS'small'
p5182
aS'high'
p5183
aS'unacc'
p5184
aa(lp5185
S'vhigh'
p5186
aS'high'
p5187
aS'5more'
p5188
aS'more'
p5189
aS'med'
p5190
aS'low'
p5191
aS'unacc'
p5192
aa(lp5193
S'vhigh'
p5194
aS'high'
p5195
aS'5more'
p5196
aS'more'
p5197
aS'med'
p5198
aS'med'
p5199
aS'unacc'
p5200
aa(lp5201
S'vhigh'
p5202
aS'high'
p5203
aS'5more'
p5204
aS'more'
p5205
aS'med'
p5206
aS'high'
p5207
aS'unacc'
p5208
aa(lp5209
S'vhigh'
p5210
aS'high'
p5211
aS'5more'
p5212
aS'more'
p5213
aS'big'
p5214
aS'low'
p5215
aS'unacc'
p5216
aa(lp5217
S'vhigh'
p5218
aS'high'
p5219
aS'5more'
p5220
aS'more'
p5221
aS'big'
p5222
aS'med'
p5223
aS'unacc'
p5224
aa(lp5225
S'vhigh'
p5226
aS'high'
p5227
aS'5more'
p5228
aS'more'
p5229
aS'big'
p5230
aS'high'
p5231
aS'unacc'
p5232
aa(lp5233
S'vhigh'
p5234
aS'med'
p5235
ag42
ag42
aS'small'
p5236
aS'low'
p5237
aS'unacc'
p5238
aa(lp5239
S'vhigh'
p5240
aS'med'
p5241
ag42
ag42
aS'small'
p5242
aS'med'
p5243
aS'unacc'
p5244
aa(lp5245
S'vhigh'
p5246
aS'med'
p5247
ag42
ag42
aS'small'
p5248
aS'high'
p5249
aS'unacc'
p5250
aa(lp5251
S'vhigh'
p5252
aS'med'
p5253
ag42
ag42
aS'med'
p5254
aS'low'
p5255
aS'unacc'
p5256
aa(lp5257
S'vhigh'
p5258
aS'med'
p5259
ag42
ag42
aS'med'
p5260
aS'med'
p5261
aS'unacc'
p5262
aa(lp5263
S'vhigh'
p5264
aS'med'
p5265
ag42
ag42
aS'med'
p5266
aS'high'
p5267
aS'unacc'
p5268
aa(lp5269
S'vhigh'
p5270
aS'med'
p5271
ag42
ag42
aS'big'
p5272
aS'low'
p5273
aS'unacc'
p5274
aa(lp5275
S'vhigh'
p5276
aS'med'
p5277
ag42
ag42
aS'big'
p5278
aS'med'
p5279
aS'unacc'
p5280
aa(lp5281
S'vhigh'
p5282
aS'med'
p5283
ag42
ag42
aS'big'
p5284
aS'high'
p5285
aS'unacc'
p5286
aa(lp5287
S'vhigh'
p5288
aS'med'
p5289
ag42
ag6
aS'small'
p5290
aS'low'
p5291
aS'unacc'
p5292
aa(lp5293
S'vhigh'
p5294
aS'med'
p5295
ag42
ag6
aS'small'
p5296
aS'med'
p5297
aS'unacc'
p5298
aa(lp5299
S'vhigh'
p5300
aS'med'
p5301
ag42
ag6
aS'med'
p5302
aS'low'
p5303
aS'unacc'
p5304
aa(lp5305
S'vhigh'
p5306
aS'med'
p5307
ag42
ag6
aS'med'
p5308
aS'med'
p5309
aS'unacc'
p5310
aa(lp5311
S'vhigh'
p5312
aS'med'
p5313
ag42
ag6
aS'big'
p5314
aS'low'
p5315
aS'unacc'
p5316
aa(lp5317
S'vhigh'
p5318
aS'med'
p5319
ag42
aS'more'
p5320
aS'small'
p5321
aS'low'
p5322
aS'unacc'
p5323
aa(lp5324
S'vhigh'
p5325
aS'med'
p5326
ag42
aS'more'
p5327
aS'small'
p5328
aS'med'
p5329
aS'unacc'
p5330
aa(lp5331
S'vhigh'
p5332
aS'med'
p5333
ag42
aS'more'
p5334
aS'small'
p5335
aS'high'
p5336
aS'unacc'
p5337
aa(lp5338
S'vhigh'
p5339
aS'med'
p5340
ag42
aS'more'
p5341
aS'med'
p5342
aS'low'
p5343
aS'unacc'
p5344
aa(lp5345
S'vhigh'
p5346
aS'med'
p5347
ag42
aS'more'
p5348
aS'med'
p5349
aS'med'
p5350
aS'unacc'
p5351
aa(lp5352
S'vhigh'
p5353
aS'med'
p5354
ag42
aS'more'
p5355
aS'big'
p5356
aS'low'
p5357
aS'unacc'
p5358
aa(lp5359
S'vhigh'
p5360
aS'med'
p5361
ag272
ag42
aS'small'
p5362
aS'low'
p5363
aS'unacc'
p5364
aa(lp5365
S'vhigh'
p5366
aS'med'
p5367
ag272
ag42
aS'small'
p5368
aS'med'
p5369
aS'unacc'
p5370
aa(lp5371
S'vhigh'
p5372
aS'med'
p5373
ag272
ag42
aS'small'
p5374
aS'high'
p5375
aS'unacc'
p5376
aa(lp5377
S'vhigh'
p5378
aS'med'
p5379
ag272
ag42
aS'med'
p5380
aS'low'
p5381
aS'unacc'
p5382
aa(lp5383
S'vhigh'
p5384
aS'med'
p5385
ag272
ag42
aS'med'
p5386
aS'med'
p5387
aS'unacc'
p5388
aa(lp5389
S'vhigh'
p5390
aS'med'
p5391
ag272
ag42
aS'med'
p5392
aS'high'
p5393
aS'unacc'
p5394
aa(lp5395
S'vhigh'
p5396
aS'med'
p5397
ag272
ag42
aS'big'
p5398
aS'low'
p5399
aS'unacc'
p5400
aa(lp5401
S'vhigh'
p5402
aS'med'
p5403
ag272
ag42
aS'big'
p5404
aS'med'
p5405
aS'unacc'
p5406
aa(lp5407
S'vhigh'
p5408
aS'med'
p5409
ag272
ag42
aS'big'
p5410
aS'high'
p5411
aS'unacc'
p5412
aa(lp5413
S'vhigh'
p5414
aS'med'
p5415
ag272
ag6
aS'small'
p5416
aS'low'
p5417
aS'unacc'
p5418
aa(lp5419
S'vhigh'
p5420
aS'med'
p5421
ag272
ag6
aS'small'
p5422
aS'med'
p5423
aS'unacc'
p5424
aa(lp5425
S'vhigh'
p5426
aS'med'
p5427
ag272
ag6
aS'med'
p5428
aS'low'
p5429
aS'unacc'
p5430
aa(lp5431
S'vhigh'
p5432
aS'med'
p5433
ag272
ag6
aS'med'
p5434
aS'med'
p5435
aS'unacc'
p5436
aa(lp5437
S'vhigh'
p5438
aS'med'
p5439
ag272
ag6
aS'big'
p5440
aS'low'
p5441
aS'unacc'
p5442
aa(lp5443
S'vhigh'
p5444
aS'med'
p5445
ag272
aS'more'
p5446
aS'small'
p5447
aS'low'
p5448
aS'unacc'
p5449
aa(lp5450
S'vhigh'
p5451
aS'med'
p5452
ag272
aS'more'
p5453
aS'small'
p5454
aS'med'
p5455
aS'unacc'
p5456
aa(lp5457
S'vhigh'
p5458
aS'med'
p5459
ag272
aS'more'
p5460
aS'med'
p5461
aS'low'
p5462
aS'unacc'
p5463
aa(lp5464
S'vhigh'
p5465
aS'med'
p5466
ag272
aS'more'
p5467
aS'big'
p5468
aS'low'
p5469
aS'unacc'
p5470
aa(lp5471
S'vhigh'
p5472
aS'med'
p5473
ag6
ag42
aS'small'
p5474
aS'low'
p5475
aS'unacc'
p5476
aa(lp5477
S'vhigh'
p5478
aS'med'
p5479
ag6
ag42
aS'small'
p5480
aS'med'
p5481
aS'unacc'
p5482
aa(lp5483
S'vhigh'
p5484
aS'med'
p5485
ag6
ag42
aS'small'
p5486
aS'high'
p5487
aS'unacc'
p5488
aa(lp5489
S'vhigh'
p5490
aS'med'
p5491
ag6
ag42
aS'med'
p5492
aS'low'
p5493
aS'unacc'
p5494
aa(lp5495
S'vhigh'
p5496
aS'med'
p5497
ag6
ag42
aS'med'
p5498
aS'med'
p5499
aS'unacc'
p5500
aa(lp5501
S'vhigh'
p5502
aS'med'
p5503
ag6
ag42
aS'med'
p5504
aS'high'
p5505
aS'unacc'
p5506
aa(lp5507
S'vhigh'
p5508
aS'med'
p5509
ag6
ag42
aS'big'
p5510
aS'low'
p5511
aS'unacc'
p5512
aa(lp5513
S'vhigh'
p5514
aS'med'
p5515
ag6
ag42
aS'big'
p5516
aS'med'
p5517
aS'unacc'
p5518
aa(lp5519
S'vhigh'
p5520
aS'med'
p5521
ag6
ag42
aS'big'
p5522
aS'high'
p5523
aS'unacc'
p5524
aa(lp5525
S'vhigh'
p5526
aS'med'
p5527
ag6
ag6
aS'small'
p5528
aS'low'
p5529
aS'unacc'
p5530
aa(lp5531
S'vhigh'
p5532
aS'med'
p5533
ag6
ag6
aS'small'
p5534
aS'med'
p5535
aS'unacc'
p5536
aa(lp5537
S'vhigh'
p5538
aS'med'
p5539
ag6
ag6
aS'med'
p5540
aS'low'
p5541
aS'unacc'
p5542
aa(lp5543
S'vhigh'
p5544
aS'med'
p5545
ag6
ag6
aS'big'
p5546
aS'low'
p5547
aS'unacc'
p5548
aa(lp5549
S'vhigh'
p5550
aS'med'
p5551
ag6
aS'more'
p5552
aS'small'
p5553
aS'low'
p5554
aS'unacc'
p5555
aa(lp5556
S'vhigh'
p5557
aS'med'
p5558
ag6
aS'more'
p5559
aS'small'
p5560
aS'med'
p5561
aS'unacc'
p5562
aa(lp5563
S'vhigh'
p5564
aS'med'
p5565
ag6
aS'more'
p5566
aS'med'
p5567
aS'low'
p5568
aS'unacc'
p5569
aa(lp5570
S'vhigh'
p5571
aS'med'
p5572
ag6
aS'more'
p5573
aS'big'
p5574
aS'low'
p5575
aS'unacc'
p5576
aa(lp5577
S'vhigh'
p5578
aS'med'
p5579
aS'5more'
p5580
ag42
aS'small'
p5581
aS'low'
p5582
aS'unacc'
p5583
aa(lp5584
S'vhigh'
p5585
aS'med'
p5586
aS'5more'
p5587
ag42
aS'small'
p5588
aS'med'
p5589
aS'unacc'
p5590
aa(lp5591
S'vhigh'
p5592
aS'med'
p5593
aS'5more'
p5594
ag42
aS'small'
p5595
aS'high'
p5596
aS'unacc'
p5597
aa(lp5598
S'vhigh'
p5599
aS'med'
p5600
aS'5more'
p5601
ag42
aS'med'
p5602
aS'low'
p5603
aS'unacc'
p5604
aa(lp5605
S'vhigh'
p5606
aS'med'
p5607
aS'5more'
p5608
ag42
aS'med'
p5609
aS'med'
p5610
aS'unacc'
p5611
aa(lp5612
S'vhigh'
p5613
aS'med'
p5614
aS'5more'
p5615
ag42
aS'med'
p5616
aS'high'
p5617
aS'unacc'
p5618
aa(lp5619
S'vhigh'
p5620
aS'med'
p5621
aS'5more'
p5622
ag42
aS'big'
p5623
aS'low'
p5624
aS'unacc'
p5625
aa(lp5626
S'vhigh'
p5627
aS'med'
p5628
aS'5more'
p5629
ag42
aS'big'
p5630
aS'med'
p5631
aS'unacc'
p5632
aa(lp5633
S'vhigh'
p5634
aS'med'
p5635
aS'5more'
p5636
ag42
aS'big'
p5637
aS'high'
p5638
aS'unacc'
p5639
aa(lp5640
S'vhigh'
p5641
aS'med'
p5642
aS'5more'
p5643
ag6
aS'small'
p5644
aS'low'
p5645
aS'unacc'
p5646
aa(lp5647
S'vhigh'
p5648
aS'med'
p5649
aS'5more'
p5650
ag6
aS'small'
p5651
aS'med'
p5652
aS'unacc'
p5653
aa(lp5654
S'vhigh'
p5655
aS'med'
p5656
aS'5more'
p5657
ag6
aS'med'
p5658
aS'low'
p5659
aS'unacc'
p5660
aa(lp5661
S'vhigh'
p5662
aS'med'
p5663
aS'5more'
p5664
ag6
aS'big'
p5665
aS'low'
p5666
aS'unacc'
p5667
aa(lp5668
S'vhigh'
p5669
aS'med'
p5670
aS'5more'
p5671
aS'more'
p5672
aS'small'
p5673
aS'low'
p5674
aS'unacc'
p5675
aa(lp5676
S'vhigh'
p5677
aS'med'
p5678
aS'5more'
p5679
aS'more'
p5680
aS'small'
p5681
aS'med'
p5682
aS'unacc'
p5683
aa(lp5684
S'vhigh'
p5685
aS'med'
p5686
aS'5more'
p5687
aS'more'
p5688
aS'med'
p5689
aS'low'
p5690
aS'unacc'
p5691
aa(lp5692
S'vhigh'
p5693
aS'med'
p5694
aS'5more'
p5695
aS'more'
p5696
aS'big'
p5697
aS'low'
p5698
aS'unacc'
p5699
aa(lp5700
S'vhigh'
p5701
aS'low'
p5702
ag42
ag42
aS'small'
p5703
aS'low'
p5704
aS'unacc'
p5705
aa(lp5706
S'vhigh'
p5707
aS'low'
p5708
ag42
ag42
aS'small'
p5709
aS'med'
p5710
aS'unacc'
p5711
aa(lp5712
S'vhigh'
p5713
aS'low'
p5714
ag42
ag42
aS'small'
p5715
aS'high'
p5716
aS'unacc'
p5717
aa(lp5718
S'vhigh'
p5719
aS'low'
p5720
ag42
ag42
aS'med'
p5721
aS'low'
p5722
aS'unacc'
p5723
aa(lp5724
S'vhigh'
p5725
aS'low'
p5726
ag42
ag42
aS'med'
p5727
aS'med'
p5728
aS'unacc'
p5729
aa(lp5730
S'vhigh'
p5731
aS'low'
p5732
ag42
ag42
aS'med'
p5733
aS'high'
p5734
aS'unacc'
p5735
aa(lp5736
S'vhigh'
p5737
aS'low'
p5738
ag42
ag42
aS'big'
p5739
aS'low'
p5740
aS'unacc'
p5741
aa(lp5742
S'vhigh'
p5743
aS'low'
p5744
ag42
ag42
aS'big'
p5745
aS'med'
p5746
aS'unacc'
p5747
aa(lp5748
S'vhigh'
p5749
aS'low'
p5750
ag42
ag42
aS'big'
p5751
aS'high'
p5752
aS'unacc'
p5753
aa(lp5754
S'vhigh'
p5755
aS'low'
p5756
ag42
ag6
aS'small'
p5757
aS'low'
p5758
aS'unacc'
p5759
aa(lp5760
S'vhigh'
p5761
aS'low'
p5762
ag42
ag6
aS'small'
p5763
aS'med'
p5764
aS'unacc'
p5765
aa(lp5766
S'vhigh'
p5767
aS'low'
p5768
ag42
ag6
aS'med'
p5769
aS'low'
p5770
aS'unacc'
p5771
aa(lp5772
S'vhigh'
p5773
aS'low'
p5774
ag42
ag6
aS'med'
p5775
aS'med'
p5776
aS'unacc'
p5777
aa(lp5778
S'vhigh'
p5779
aS'low'
p5780
ag42
ag6
aS'big'
p5781
aS'low'
p5782
aS'unacc'
p5783
aa(lp5784
S'vhigh'
p5785
aS'low'
p5786
ag42
aS'more'
p5787
aS'small'
p5788
aS'low'
p5789
aS'unacc'
p5790
aa(lp5791
S'vhigh'
p5792
aS'low'
p5793
ag42
aS'more'
p5794
aS'small'
p5795
aS'med'
p5796
aS'unacc'
p5797
aa(lp5798
S'vhigh'
p5799
aS'low'
p5800
ag42
aS'more'
p5801
aS'small'
p5802
aS'high'
p5803
aS'unacc'
p5804
aa(lp5805
S'vhigh'
p5806
aS'low'
p5807
ag42
aS'more'
p5808
aS'med'
p5809
aS'low'
p5810
aS'unacc'
p5811
aa(lp5812
S'vhigh'
p5813
aS'low'
p5814
ag42
aS'more'
p5815
aS'med'
p5816
aS'med'
p5817
aS'unacc'
p5818
aa(lp5819
S'vhigh'
p5820
aS'low'
p5821
ag42
aS'more'
p5822
aS'big'
p5823
aS'low'
p5824
aS'unacc'
p5825
aa(lp5826
S'vhigh'
p5827
aS'low'
p5828
ag272
ag42
aS'small'
p5829
aS'low'
p5830
aS'unacc'
p5831
aa(lp5832
S'vhigh'
p5833
aS'low'
p5834
ag272
ag42
aS'small'
p5835
aS'med'
p5836
aS'unacc'
p5837
aa(lp5838
S'vhigh'
p5839
aS'low'
p5840
ag272
ag42
aS'small'
p5841
aS'high'
p5842
aS'unacc'
p5843
aa(lp5844
S'vhigh'
p5845
aS'low'
p5846
ag272
ag42
aS'med'
p5847
aS'low'
p5848
aS'unacc'
p5849
aa(lp5850
S'vhigh'
p5851
aS'low'
p5852
ag272
ag42
aS'med'
p5853
aS'med'
p5854
aS'unacc'
p5855
aa(lp5856
S'vhigh'
p5857
aS'low'
p5858
ag272
ag42
aS'med'
p5859
aS'high'
p5860
aS'unacc'
p5861
aa(lp5862
S'vhigh'
p5863
aS'low'
p5864
ag272
ag42
aS'big'
p5865
aS'low'
p5866
aS'unacc'
p5867
aa(lp5868
S'vhigh'
p5869
aS'low'
p5870
ag272
ag42
aS'big'
p5871
aS'med'
p5872
aS'unacc'
p5873
aa(lp5874
S'vhigh'
p5875
aS'low'
p5876
ag272
ag42
aS'big'
p5877
aS'high'
p5878
aS'unacc'
p5879
aa(lp5880
S'vhigh'
p5881
aS'low'
p5882
ag272
ag6
aS'small'
p5883
aS'low'
p5884
aS'unacc'
p5885
aa(lp5886
S'vhigh'
p5887
aS'low'
p5888
ag272
ag6
aS'small'
p5889
aS'med'
p5890
aS'unacc'
p5891
aa(lp5892
S'vhigh'
p5893
aS'low'
p5894
ag272
ag6
aS'med'
p5895
aS'low'
p5896
aS'unacc'
p5897
aa(lp5898
S'vhigh'
p5899
aS'low'
p5900
ag272
ag6
aS'med'
p5901
aS'med'
p5902
aS'unacc'
p5903
aa(lp5904
S'vhigh'
p5905
aS'low'
p5906
ag272
ag6
aS'big'
p5907
aS'low'
p5908
aS'unacc'
p5909
aa(lp5910
S'vhigh'
p5911
aS'low'
p5912
ag272
aS'more'
p5913
aS'small'
p5914
aS'low'
p5915
aS'unacc'
p5916
aa(lp5917
S'vhigh'
p5918
aS'low'
p5919
ag272
aS'more'
p5920
aS'small'
p5921
aS'med'
p5922
aS'unacc'
p5923
aa(lp5924
S'vhigh'
p5925
aS'low'
p5926
ag272
aS'more'
p5927
aS'med'
p5928
aS'low'
p5929
aS'unacc'
p5930
aa(lp5931
S'vhigh'
p5932
aS'low'
p5933
ag272
aS'more'
p5934
aS'big'
p5935
aS'low'
p5936
aS'unacc'
p5937
aa(lp5938
S'vhigh'
p5939
aS'low'
p5940
ag6
ag42
aS'small'
p5941
aS'low'
p5942
aS'unacc'
p5943
aa(lp5944
S'vhigh'
p5945
aS'low'
p5946
ag6
ag42
aS'small'
p5947
aS'med'
p5948
aS'unacc'
p5949
aa(lp5950
S'vhigh'
p5951
aS'low'
p5952
ag6
ag42
aS'small'
p5953
aS'high'
p5954
aS'unacc'
p5955
aa(lp5956
S'vhigh'
p5957
aS'low'
p5958
ag6
ag42
aS'med'
p5959
aS'low'
p5960
aS'unacc'
p5961
aa(lp5962
S'vhigh'
p5963
aS'low'
p5964
ag6
ag42
aS'med'
p5965
aS'med'
p5966
aS'unacc'
p5967
aa(lp5968
S'vhigh'
p5969
aS'low'
p5970
ag6
ag42
aS'med'
p5971
aS'high'
p5972
aS'unacc'
p5973
aa(lp5974
S'vhigh'
p5975
aS'low'
p5976
ag6
ag42
aS'big'
p5977
aS'low'
p5978
aS'unacc'
p5979
aa(lp5980
S'vhigh'
p5981
aS'low'
p5982
ag6
ag42
aS'big'
p5983
aS'med'
p5984
aS'unacc'
p5985
aa(lp5986
S'vhigh'
p5987
aS'low'
p5988
ag6
ag42
aS'big'
p5989
aS'high'
p5990
aS'unacc'
p5991
aa(lp5992
S'vhigh'
p5993
aS'low'
p5994
ag6
ag6
aS'small'
p5995
aS'low'
p5996
aS'unacc'
p5997
aa(lp5998
S'vhigh'
p5999
aS'low'
p6000
ag6
ag6
aS'small'
p6001
aS'med'
p6002
aS'unacc'
p6003
aa(lp6004
S'vhigh'
p6005
aS'low'
p6006
ag6
ag6
aS'med'
p6007
aS'low'
p6008
aS'unacc'
p6009
aa(lp6010
S'vhigh'
p6011
aS'low'
p6012
ag6
ag6
aS'big'
p6013
aS'low'
p6014
aS'unacc'
p6015
aa(lp6016
S'vhigh'
p6017
aS'low'
p6018
ag6
aS'more'
p6019
aS'small'
p6020
aS'low'
p6021
aS'unacc'
p6022
aa(lp6023
S'vhigh'
p6024
aS'low'
p6025
ag6
aS'more'
p6026
aS'small'
p6027
aS'med'
p6028
aS'unacc'
p6029
aa(lp6030
S'vhigh'
p6031
aS'low'
p6032
ag6
aS'more'
p6033
aS'med'
p6034
aS'low'
p6035
aS'unacc'
p6036
aa(lp6037
S'vhigh'
p6038
aS'low'
p6039
ag6
aS'more'
p6040
aS'big'
p6041
aS'low'
p6042
aS'unacc'
p6043
aa(lp6044
S'vhigh'
p6045
aS'low'
p6046
aS'5more'
p6047
ag42
aS'small'
p6048
aS'low'
p6049
aS'unacc'
p6050
aa(lp6051
S'vhigh'
p6052
aS'low'
p6053
aS'5more'
p6054
ag42
aS'small'
p6055
aS'med'
p6056
aS'unacc'
p6057
aa(lp6058
S'vhigh'
p6059
aS'low'
p6060
aS'5more'
p6061
ag42
aS'small'
p6062
aS'high'
p6063
aS'unacc'
p6064
aa(lp6065
S'vhigh'
p6066
aS'low'
p6067
aS'5more'
p6068
ag42
aS'med'
p6069
aS'low'
p6070
aS'unacc'
p6071
aa(lp6072
S'vhigh'
p6073
aS'low'
p6074
aS'5more'
p6075
ag42
aS'med'
p6076
aS'med'
p6077
aS'unacc'
p6078
aa(lp6079
S'vhigh'
p6080
aS'low'
p6081
aS'5more'
p6082
ag42
aS'med'
p6083
aS'high'
p6084
aS'unacc'
p6085
aa(lp6086
S'vhigh'
p6087
aS'low'
p6088
aS'5more'
p6089
ag42
aS'big'
p6090
aS'low'
p6091
aS'unacc'
p6092
aa(lp6093
S'vhigh'
p6094
aS'low'
p6095
aS'5more'
p6096
ag42
aS'big'
p6097
aS'med'
p6098
aS'unacc'
p6099
aa(lp6100
S'vhigh'
p6101
aS'low'
p6102
aS'5more'
p6103
ag42
aS'big'
p6104
aS'high'
p6105
aS'unacc'
p6106
aa(lp6107
S'vhigh'
p6108
aS'low'
p6109
aS'5more'
p6110
ag6
aS'small'
p6111
aS'low'
p6112
aS'unacc'
p6113
aa(lp6114
S'vhigh'
p6115
aS'low'
p6116
aS'5more'
p6117
ag6
aS'small'
p6118
aS'med'
p6119
aS'unacc'
p6120
aa(lp6121
S'vhigh'
p6122
aS'low'
p6123
aS'5more'
p6124
ag6
aS'med'
p6125
aS'low'
p6126
aS'unacc'
p6127
aa(lp6128
S'vhigh'
p6129
aS'low'
p6130
aS'5more'
p6131
ag6
aS'big'
p6132
aS'low'
p6133
aS'unacc'
p6134
aa(lp6135
S'vhigh'
p6136
aS'low'
p6137
aS'5more'
p6138
aS'more'
p6139
aS'small'
p6140
aS'low'
p6141
aS'unacc'
p6142
aa(lp6143
S'vhigh'
p6144
aS'low'
p6145
aS'5more'
p6146
aS'more'
p6147
aS'small'
p6148
aS'med'
p6149
aS'unacc'
p6150
aa(lp6151
S'vhigh'
p6152
aS'low'
p6153
aS'5more'
p6154
aS'more'
p6155
aS'med'
p6156
aS'low'
p6157
aS'unacc'
p6158
aa(lp6159
S'vhigh'
p6160
aS'low'
p6161
aS'5more'
p6162
aS'more'
p6163
aS'big'
p6164
aS'low'
p6165
aS'unacc'
p6166
aa(lp6167
S'high'
p6168
aS'vhigh'
p6169
ag42
ag42
aS'small'
p6170
aS'low'
p6171
aS'unacc'
p6172
aa(lp6173
S'high'
p6174
aS'vhigh'
p6175
ag42
ag42
aS'small'
p6176
aS'med'
p6177
aS'unacc'
p6178
aa(lp6179
S'high'
p6180
aS'vhigh'
p6181
ag42
ag42
aS'small'
p6182
aS'high'
p6183
aS'unacc'
p6184
aa(lp6185
S'high'
p6186
aS'vhigh'
p6187
ag42
ag42
aS'med'
p6188
aS'low'
p6189
aS'unacc'
p6190
aa(lp6191
S'high'
p6192
aS'vhigh'
p6193
ag42
ag42
aS'med'
p6194
aS'med'
p6195
aS'unacc'
p6196
aa(lp6197
S'high'
p6198
aS'vhigh'
p6199
ag42
ag42
aS'med'
p6200
aS'high'
p6201
aS'unacc'
p6202
aa(lp6203
S'high'
p6204
aS'vhigh'
p6205
ag42
ag42
aS'big'
p6206
aS'low'
p6207
aS'unacc'
p6208
aa(lp6209
S'high'
p6210
aS'vhigh'
p6211
ag42
ag42
aS'big'
p6212
aS'med'
p6213
aS'unacc'
p6214
aa(lp6215
S'high'
p6216
aS'vhigh'
p6217
ag42
ag42
aS'big'
p6218
aS'high'
p6219
aS'unacc'
p6220
aa(lp6221
S'high'
p6222
aS'vhigh'
p6223
ag42
ag6
aS'small'
p6224
aS'low'
p6225
aS'unacc'
p6226
aa(lp6227
S'high'
p6228
aS'vhigh'
p6229
ag42
ag6
aS'small'
p6230
aS'med'
p6231
aS'unacc'
p6232
aa(lp6233
S'high'
p6234
aS'vhigh'
p6235
ag42
ag6
aS'small'
p6236
aS'high'
p6237
aS'unacc'
p6238
aa(lp6239
S'high'
p6240
aS'vhigh'
p6241
ag42
ag6
aS'med'
p6242
aS'low'
p6243
aS'unacc'
p6244
aa(lp6245
S'high'
p6246
aS'vhigh'
p6247
ag42
ag6
aS'med'
p6248
aS'med'
p6249
aS'unacc'
p6250
aa(lp6251
S'high'
p6252
aS'vhigh'
p6253
ag42
ag6
aS'med'
p6254
aS'high'
p6255
aS'unacc'
p6256
aa(lp6257
S'high'
p6258
aS'vhigh'
p6259
ag42
ag6
aS'big'
p6260
aS'low'
p6261
aS'unacc'
p6262
aa(lp6263
S'high'
p6264
aS'vhigh'
p6265
ag42
ag6
aS'big'
p6266
aS'med'
p6267
aS'unacc'
p6268
aa(lp6269
S'high'
p6270
aS'vhigh'
p6271
ag42
ag6
aS'big'
p6272
aS'high'
p6273
aS'unacc'
p6274
aa(lp6275
S'high'
p6276
aS'vhigh'
p6277
ag42
aS'more'
p6278
aS'small'
p6279
aS'low'
p6280
aS'unacc'
p6281
aa(lp6282
S'high'
p6283
aS'vhigh'
p6284
ag42
aS'more'
p6285
aS'small'
p6286
aS'med'
p6287
aS'unacc'
p6288
aa(lp6289
S'high'
p6290
aS'vhigh'
p6291
ag42
aS'more'
p6292
aS'small'
p6293
aS'high'
p6294
aS'unacc'
p6295
aa(lp6296
S'high'
p6297
aS'vhigh'
p6298
ag42
aS'more'
p6299
aS'med'
p6300
aS'low'
p6301
aS'unacc'
p6302
aa(lp6303
S'high'
p6304
aS'vhigh'
p6305
ag42
aS'more'
p6306
aS'med'
p6307
aS'med'
p6308
aS'unacc'
p6309
aa(lp6310
S'high'
p6311
aS'vhigh'
p6312
ag42
aS'more'
p6313
aS'med'
p6314
aS'high'
p6315
aS'unacc'
p6316
aa(lp6317
S'high'
p6318
aS'vhigh'
p6319
ag42
aS'more'
p6320
aS'big'
p6321
aS'low'
p6322
aS'unacc'
p6323
aa(lp6324
S'high'
p6325
aS'vhigh'
p6326
ag42
aS'more'
p6327
aS'big'
p6328
aS'med'
p6329
aS'unacc'
p6330
aa(lp6331
S'high'
p6332
aS'vhigh'
p6333
ag42
aS'more'
p6334
aS'big'
p6335
aS'high'
p6336
aS'unacc'
p6337
aa(lp6338
S'high'
p6339
aS'vhigh'
p6340
ag272
ag42
aS'small'
p6341
aS'low'
p6342
aS'unacc'
p6343
aa(lp6344
S'high'
p6345
aS'vhigh'
p6346
ag272
ag42
aS'small'
p6347
aS'med'
p6348
aS'unacc'
p6349
aa(lp6350
S'high'
p6351
aS'vhigh'
p6352
ag272
ag42
aS'small'
p6353
aS'high'
p6354
aS'unacc'
p6355
aa(lp6356
S'high'
p6357
aS'vhigh'
p6358
ag272
ag42
aS'med'
p6359
aS'low'
p6360
aS'unacc'
p6361
aa(lp6362
S'high'
p6363
aS'vhigh'
p6364
ag272
ag42
aS'med'
p6365
aS'med'
p6366
aS'unacc'
p6367
aa(lp6368
S'high'
p6369
aS'vhigh'
p6370
ag272
ag42
aS'med'
p6371
aS'high'
p6372
aS'unacc'
p6373
aa(lp6374
S'high'
p6375
aS'vhigh'
p6376
ag272
ag42
aS'big'
p6377
aS'low'
p6378
aS'unacc'
p6379
aa(lp6380
S'high'
p6381
aS'vhigh'
p6382
ag272
ag42
aS'big'
p6383
aS'med'
p6384
aS'unacc'
p6385
aa(lp6386
S'high'
p6387
aS'vhigh'
p6388
ag272
ag42
aS'big'
p6389
aS'high'
p6390
aS'unacc'
p6391
aa(lp6392
S'high'
p6393
aS'vhigh'
p6394
ag272
ag6
aS'small'
p6395
aS'low'
p6396
aS'unacc'
p6397
aa(lp6398
S'high'
p6399
aS'vhigh'
p6400
ag272
ag6
aS'small'
p6401
aS'med'
p6402
aS'unacc'
p6403
aa(lp6404
S'high'
p6405
aS'vhigh'
p6406
ag272
ag6
aS'small'
p6407
aS'high'
p6408
aS'unacc'
p6409
aa(lp6410
S'high'
p6411
aS'vhigh'
p6412
ag272
ag6
aS'med'
p6413
aS'low'
p6414
aS'unacc'
p6415
aa(lp6416
S'high'
p6417
aS'vhigh'
p6418
ag272
ag6
aS'med'
p6419
aS'med'
p6420
aS'unacc'
p6421
aa(lp6422
S'high'
p6423
aS'vhigh'
p6424
ag272
ag6
aS'med'
p6425
aS'high'
p6426
aS'unacc'
p6427
aa(lp6428
S'high'
p6429
aS'vhigh'
p6430
ag272
ag6
aS'big'
p6431
aS'low'
p6432
aS'unacc'
p6433
aa(lp6434
S'high'
p6435
aS'vhigh'
p6436
ag272
ag6
aS'big'
p6437
aS'med'
p6438
aS'unacc'
p6439
aa(lp6440
S'high'
p6441
aS'vhigh'
p6442
ag272
ag6
aS'big'
p6443
aS'high'
p6444
aS'unacc'
p6445
aa(lp6446
S'high'
p6447
aS'vhigh'
p6448
ag272
aS'more'
p6449
aS'small'
p6450
aS'low'
p6451
aS'unacc'
p6452
aa(lp6453
S'high'
p6454
aS'vhigh'
p6455
ag272
aS'more'
p6456
aS'small'
p6457
aS'med'
p6458
aS'unacc'
p6459
aa(lp6460
S'high'
p6461
aS'vhigh'
p6462
ag272
aS'more'
p6463
aS'small'
p6464
aS'high'
p6465
aS'unacc'
p6466
aa(lp6467
S'high'
p6468
aS'vhigh'
p6469
ag272
aS'more'
p6470
aS'med'
p6471
aS'low'
p6472
aS'unacc'
p6473
aa(lp6474
S'high'
p6475
aS'vhigh'
p6476
ag272
aS'more'
p6477
aS'med'
p6478
aS'med'
p6479
aS'unacc'
p6480
aa(lp6481
S'high'
p6482
aS'vhigh'
p6483
ag272
aS'more'
p6484
aS'med'
p6485
aS'high'
p6486
aS'unacc'
p6487
aa(lp6488
S'high'
p6489
aS'vhigh'
p6490
ag272
aS'more'
p6491
aS'big'
p6492
aS'low'
p6493
aS'unacc'
p6494
aa(lp6495
S'high'
p6496
aS'vhigh'
p6497
ag272
aS'more'
p6498
aS'big'
p6499
aS'med'
p6500
aS'unacc'
p6501
aa(lp6502
S'high'
p6503
aS'vhigh'
p6504
ag272
aS'more'
p6505
aS'big'
p6506
aS'high'
p6507
aS'unacc'
p6508
aa(lp6509
S'high'
p6510
aS'vhigh'
p6511
ag6
ag42
aS'small'
p6512
aS'low'
p6513
aS'unacc'
p6514
aa(lp6515
S'high'
p6516
aS'vhigh'
p6517
ag6
ag42
aS'small'
p6518
aS'med'
p6519
aS'unacc'
p6520
aa(lp6521
S'high'
p6522
aS'vhigh'
p6523
ag6
ag42
aS'small'
p6524
aS'high'
p6525
aS'unacc'
p6526
aa(lp6527
S'high'
p6528
aS'vhigh'
p6529
ag6
ag42
aS'med'
p6530
aS'low'
p6531
aS'unacc'
p6532
aa(lp6533
S'high'
p6534
aS'vhigh'
p6535
ag6
ag42
aS'med'
p6536
aS'med'
p6537
aS'unacc'
p6538
aa(lp6539
S'high'
p6540
aS'vhigh'
p6541
ag6
ag42
aS'med'
p6542
aS'high'
p6543
aS'unacc'
p6544
aa(lp6545
S'high'
p6546
aS'vhigh'
p6547
ag6
ag42
aS'big'
p6548
aS'low'
p6549
aS'unacc'
p6550
aa(lp6551
S'high'
p6552
aS'vhigh'
p6553
ag6
ag42
aS'big'
p6554
aS'med'
p6555
aS'unacc'
p6556
aa(lp6557
S'high'
p6558
aS'vhigh'
p6559
ag6
ag42
aS'big'
p6560
aS'high'
p6561
aS'unacc'
p6562
aa(lp6563
S'high'
p6564
aS'vhigh'
p6565
ag6
ag6
aS'small'
p6566
aS'low'
p6567
aS'unacc'
p6568
aa(lp6569
S'high'
p6570
aS'vhigh'
p6571
ag6
ag6
aS'small'
p6572
aS'med'
p6573
aS'unacc'
p6574
aa(lp6575
S'high'
p6576
aS'vhigh'
p6577
ag6
ag6
aS'small'
p6578
aS'high'
p6579
aS'unacc'
p6580
aa(lp6581
S'high'
p6582
aS'vhigh'
p6583
ag6
ag6
aS'med'
p6584
aS'low'
p6585
aS'unacc'
p6586
aa(lp6587
S'high'
p6588
aS'vhigh'
p6589
ag6
ag6
aS'med'
p6590
aS'med'
p6591
aS'unacc'
p6592
aa(lp6593
S'high'
p6594
aS'vhigh'
p6595
ag6
ag6
aS'med'
p6596
aS'high'
p6597
aS'unacc'
p6598
aa(lp6599
S'high'
p6600
aS'vhigh'
p6601
ag6
ag6
aS'big'
p6602
aS'low'
p6603
aS'unacc'
p6604
aa(lp6605
S'high'
p6606
aS'vhigh'
p6607
ag6
ag6
aS'big'
p6608
aS'med'
p6609
aS'unacc'
p6610
aa(lp6611
S'high'
p6612
aS'vhigh'
p6613
ag6
ag6
aS'big'
p6614
aS'high'
p6615
aS'unacc'
p6616
aa(lp6617
S'high'
p6618
aS'vhigh'
p6619
ag6
aS'more'
p6620
aS'small'
p6621
aS'low'
p6622
aS'unacc'
p6623
aa(lp6624
S'high'
p6625
aS'vhigh'
p6626
ag6
aS'more'
p6627
aS'small'
p6628
aS'med'
p6629
aS'unacc'
p6630
aa(lp6631
S'high'
p6632
aS'vhigh'
p6633
ag6
aS'more'
p6634
aS'small'
p6635
aS'high'
p6636
aS'unacc'
p6637
aa(lp6638
S'high'
p6639
aS'vhigh'
p6640
ag6
aS'more'
p6641
aS'med'
p6642
aS'low'
p6643
aS'unacc'
p6644
aa(lp6645
S'high'
p6646
aS'vhigh'
p6647
ag6
aS'more'
p6648
aS'med'
p6649
aS'med'
p6650
aS'unacc'
p6651
aa(lp6652
S'high'
p6653
aS'vhigh'
p6654
ag6
aS'more'
p6655
aS'med'
p6656
aS'high'
p6657
aS'unacc'
p6658
aa(lp6659
S'high'
p6660
aS'vhigh'
p6661
ag6
aS'more'
p6662
aS'big'
p6663
aS'low'
p6664
aS'unacc'
p6665
aa(lp6666
S'high'
p6667
aS'vhigh'
p6668
ag6
aS'more'
p6669
aS'big'
p6670
aS'med'
p6671
aS'unacc'
p6672
aa(lp6673
S'high'
p6674
aS'vhigh'
p6675
ag6
aS'more'
p6676
aS'big'
p6677
aS'high'
p6678
aS'unacc'
p6679
aa(lp6680
S'high'
p6681
aS'vhigh'
p6682
aS'5more'
p6683
ag42
aS'small'
p6684
aS'low'
p6685
aS'unacc'
p6686
aa(lp6687
S'high'
p6688
aS'vhigh'
p6689
aS'5more'
p6690
ag42
aS'small'
p6691
aS'med'
p6692
aS'unacc'
p6693
aa(lp6694
S'high'
p6695
aS'vhigh'
p6696
aS'5more'
p6697
ag42
aS'small'
p6698
aS'high'
p6699
aS'unacc'
p6700
aa(lp6701
S'high'
p6702
aS'vhigh'
p6703
aS'5more'
p6704
ag42
aS'med'
p6705
aS'low'
p6706
aS'unacc'
p6707
aa(lp6708
S'high'
p6709
aS'vhigh'
p6710
aS'5more'
p6711
ag42
aS'med'
p6712
aS'med'
p6713
aS'unacc'
p6714
aa(lp6715
S'high'
p6716
aS'vhigh'
p6717
aS'5more'
p6718
ag42
aS'med'
p6719
aS'high'
p6720
aS'unacc'
p6721
aa(lp6722
S'high'
p6723
aS'vhigh'
p6724
aS'5more'
p6725
ag42
aS'big'
p6726
aS'low'
p6727
aS'unacc'
p6728
aa(lp6729
S'high'
p6730
aS'vhigh'
p6731
aS'5more'
p6732
ag42
aS'big'
p6733
aS'med'
p6734
aS'unacc'
p6735
aa(lp6736
S'high'
p6737
aS'vhigh'
p6738
aS'5more'
p6739
ag42
aS'big'
p6740
aS'high'
p6741
aS'unacc'
p6742
aa(lp6743
S'high'
p6744
aS'vhigh'
p6745
aS'5more'
p6746
ag6
aS'small'
p6747
aS'low'
p6748
aS'unacc'
p6749
aa(lp6750
S'high'
p6751
aS'vhigh'
p6752
aS'5more'
p6753
ag6
aS'small'
p6754
aS'med'
p6755
aS'unacc'
p6756
aa(lp6757
S'high'
p6758
aS'vhigh'
p6759
aS'5more'
p6760
ag6
aS'small'
p6761
aS'high'
p6762
aS'unacc'
p6763
aa(lp6764
S'high'
p6765
aS'vhigh'
p6766
aS'5more'
p6767
ag6
aS'med'
p6768
aS'low'
p6769
aS'unacc'
p6770
aa(lp6771
S'high'
p6772
aS'vhigh'
p6773
aS'5more'
p6774
ag6
aS'med'
p6775
aS'med'
p6776
aS'unacc'
p6777
aa(lp6778
S'high'
p6779
aS'vhigh'
p6780
aS'5more'
p6781
ag6
aS'med'
p6782
aS'high'
p6783
aS'unacc'
p6784
aa(lp6785
S'high'
p6786
aS'vhigh'
p6787
aS'5more'
p6788
ag6
aS'big'
p6789
aS'low'
p6790
aS'unacc'
p6791
aa(lp6792
S'high'
p6793
aS'vhigh'
p6794
aS'5more'
p6795
ag6
aS'big'
p6796
aS'med'
p6797
aS'unacc'
p6798
aa(lp6799
S'high'
p6800
aS'vhigh'
p6801
aS'5more'
p6802
ag6
aS'big'
p6803
aS'high'
p6804
aS'unacc'
p6805
aa(lp6806
S'high'
p6807
aS'vhigh'
p6808
aS'5more'
p6809
aS'more'
p6810
aS'small'
p6811
aS'low'
p6812
aS'unacc'
p6813
aa(lp6814
S'high'
p6815
aS'vhigh'
p6816
aS'5more'
p6817
aS'more'
p6818
aS'small'
p6819
aS'med'
p6820
aS'unacc'
p6821
aa(lp6822
S'high'
p6823
aS'vhigh'
p6824
aS'5more'
p6825
aS'more'
p6826
aS'small'
p6827
aS'high'
p6828
aS'unacc'
p6829
aa(lp6830
S'high'
p6831
aS'vhigh'
p6832
aS'5more'
p6833
aS'more'
p6834
aS'med'
p6835
aS'low'
p6836
aS'unacc'
p6837
aa(lp6838
S'high'
p6839
aS'vhigh'
p6840
aS'5more'
p6841
aS'more'
p6842
aS'med'
p6843
aS'med'
p6844
aS'unacc'
p6845
aa(lp6846
S'high'
p6847
aS'vhigh'
p6848
aS'5more'
p6849
aS'more'
p6850
aS'med'
p6851
aS'high'
p6852
aS'unacc'
p6853
aa(lp6854
S'high'
p6855
aS'vhigh'
p6856
aS'5more'
p6857
aS'more'
p6858
aS'big'
p6859
aS'low'
p6860
aS'unacc'
p6861
aa(lp6862
S'high'
p6863
aS'vhigh'
p6864
aS'5more'
p6865
aS'more'
p6866
aS'big'
p6867
aS'med'
p6868
aS'unacc'
p6869
aa(lp6870
S'high'
p6871
aS'vhigh'
p6872
aS'5more'
p6873
aS'more'
p6874
aS'big'
p6875
aS'high'
p6876
aS'unacc'
p6877
aa(lp6878
S'high'
p6879
aS'high'
p6880
ag42
ag42
aS'small'
p6881
aS'low'
p6882
aS'unacc'
p6883
aa(lp6884
S'high'
p6885
aS'high'
p6886
ag42
ag42
aS'small'
p6887
aS'med'
p6888
aS'unacc'
p6889
aa(lp6890
S'high'
p6891
aS'high'
p6892
ag42
ag42
aS'small'
p6893
aS'high'
p6894
aS'unacc'
p6895
aa(lp6896
S'high'
p6897
aS'high'
p6898
ag42
ag42
aS'med'
p6899
aS'low'
p6900
aS'unacc'
p6901
aa(lp6902
S'high'
p6903
aS'high'
p6904
ag42
ag42
aS'med'
p6905
aS'med'
p6906
aS'unacc'
p6907
aa(lp6908
S'high'
p6909
aS'high'
p6910
ag42
ag42
aS'med'
p6911
aS'high'
p6912
aS'unacc'
p6913
aa(lp6914
S'high'
p6915
aS'high'
p6916
ag42
ag42
aS'big'
p6917
aS'low'
p6918
aS'unacc'
p6919
aa(lp6920
S'high'
p6921
aS'high'
p6922
ag42
ag42
aS'big'
p6923
aS'med'
p6924
aS'unacc'
p6925
aa(lp6926
S'high'
p6927
aS'high'
p6928
ag42
ag42
aS'big'
p6929
aS'high'
p6930
aS'unacc'
p6931
aa(lp6932
S'high'
p6933
aS'high'
p6934
ag42
ag6
aS'small'
p6935
aS'low'
p6936
aS'unacc'
p6937
aa(lp6938
S'high'
p6939
aS'high'
p6940
ag42
ag6
aS'small'
p6941
aS'med'
p6942
aS'unacc'
p6943
aa(lp6944
S'high'
p6945
aS'high'
p6946
ag42
ag6
aS'med'
p6947
aS'low'
p6948
aS'unacc'
p6949
aa(lp6950
S'high'
p6951
aS'high'
p6952
ag42
ag6
aS'med'
p6953
aS'med'
p6954
aS'unacc'
p6955
aa(lp6956
S'high'
p6957
aS'high'
p6958
ag42
ag6
aS'big'
p6959
aS'low'
p6960
aS'unacc'
p6961
aa(lp6962
S'high'
p6963
aS'high'
p6964
ag42
aS'more'
p6965
aS'small'
p6966
aS'low'
p6967
aS'unacc'
p6968
aa(lp6969
S'high'
p6970
aS'high'
p6971
ag42
aS'more'
p6972
aS'small'
p6973
aS'med'
p6974
aS'unacc'
p6975
aa(lp6976
S'high'
p6977
aS'high'
p6978
ag42
aS'more'
p6979
aS'small'
p6980
aS'high'
p6981
aS'unacc'
p6982
aa(lp6983
S'high'
p6984
aS'high'
p6985
ag42
aS'more'
p6986
aS'med'
p6987
aS'low'
p6988
aS'unacc'
p6989
aa(lp6990
S'high'
p6991
aS'high'
p6992
ag42
aS'more'
p6993
aS'med'
p6994
aS'med'
p6995
aS'unacc'
p6996
aa(lp6997
S'high'
p6998
aS'high'
p6999
ag42
aS'more'
p7000
aS'big'
p7001
aS'low'
p7002
aS'unacc'
p7003
aa(lp7004
S'high'
p7005
aS'high'
p7006
ag272
ag42
aS'small'
p7007
aS'low'
p7008
aS'unacc'
p7009
aa(lp7010
S'high'
p7011
aS'high'
p7012
ag272
ag42
aS'small'
p7013
aS'med'
p7014
aS'unacc'
p7015
aa(lp7016
S'high'
p7017
aS'high'
p7018
ag272
ag42
aS'small'
p7019
aS'high'
p7020
aS'unacc'
p7021
aa(lp7022
S'high'
p7023
aS'high'
p7024
ag272
ag42
aS'med'
p7025
aS'low'
p7026
aS'unacc'
p7027
aa(lp7028
S'high'
p7029
aS'high'
p7030
ag272
ag42
aS'med'
p7031
aS'med'
p7032
aS'unacc'
p7033
aa(lp7034
S'high'
p7035
aS'high'
p7036
ag272
ag42
aS'med'
p7037
aS'high'
p7038
aS'unacc'
p7039
aa(lp7040
S'high'
p7041
aS'high'
p7042
ag272
ag42
aS'big'
p7043
aS'low'
p7044
aS'unacc'
p7045
aa(lp7046
S'high'
p7047
aS'high'
p7048
ag272
ag42
aS'big'
p7049
aS'med'
p7050
aS'unacc'
p7051
aa(lp7052
S'high'
p7053
aS'high'
p7054
ag272
ag42
aS'big'
p7055
aS'high'
p7056
aS'unacc'
p7057
aa(lp7058
S'high'
p7059
aS'high'
p7060
ag272
ag6
aS'small'
p7061
aS'low'
p7062
aS'unacc'
p7063
aa(lp7064
S'high'
p7065
aS'high'
p7066
ag272
ag6
aS'small'
p7067
aS'med'
p7068
aS'unacc'
p7069
aa(lp7070
S'high'
p7071
aS'high'
p7072
ag272
ag6
aS'med'
p7073
aS'low'
p7074
aS'unacc'
p7075
aa(lp7076
S'high'
p7077
aS'high'
p7078
ag272
ag6
aS'med'
p7079
aS'med'
p7080
aS'unacc'
p7081
aa(lp7082
S'high'
p7083
aS'high'
p7084
ag272
ag6
aS'big'
p7085
aS'low'
p7086
aS'unacc'
p7087
aa(lp7088
S'high'
p7089
aS'high'
p7090
ag272
aS'more'
p7091
aS'small'
p7092
aS'low'
p7093
aS'unacc'
p7094
aa(lp7095
S'high'
p7096
aS'high'
p7097
ag272
aS'more'
p7098
aS'small'
p7099
aS'med'
p7100
aS'unacc'
p7101
aa(lp7102
S'high'
p7103
aS'high'
p7104
ag272
aS'more'
p7105
aS'med'
p7106
aS'low'
p7107
aS'unacc'
p7108
aa(lp7109
S'high'
p7110
aS'high'
p7111
ag272
aS'more'
p7112
aS'big'
p7113
aS'low'
p7114
aS'unacc'
p7115
aa(lp7116
S'high'
p7117
aS'high'
p7118
ag6
ag42
aS'small'
p7119
aS'low'
p7120
aS'unacc'
p7121
aa(lp7122
S'high'
p7123
aS'high'
p7124
ag6
ag42
aS'small'
p7125
aS'med'
p7126
aS'unacc'
p7127
aa(lp7128
S'high'
p7129
aS'high'
p7130
ag6
ag42
aS'small'
p7131
aS'high'
p7132
aS'unacc'
p7133
aa(lp7134
S'high'
p7135
aS'high'
p7136
ag6
ag42
aS'med'
p7137
aS'low'
p7138
aS'unacc'
p7139
aa(lp7140
S'high'
p7141
aS'high'
p7142
ag6
ag42
aS'med'
p7143
aS'med'
p7144
aS'unacc'
p7145
aa(lp7146
S'high'
p7147
aS'high'
p7148
ag6
ag42
aS'med'
p7149
aS'high'
p7150
aS'unacc'
p7151
aa(lp7152
S'high'
p7153
aS'high'
p7154
ag6
ag42
aS'big'
p7155
aS'low'
p7156
aS'unacc'
p7157
aa(lp7158
S'high'
p7159
aS'high'
p7160
ag6
ag42
aS'big'
p7161
aS'med'
p7162
aS'unacc'
p7163
aa(lp7164
S'high'
p7165
aS'high'
p7166
ag6
ag42
aS'big'
p7167
aS'high'
p7168
aS'unacc'
p7169
aa(lp7170
S'high'
p7171
aS'high'
p7172
ag6
ag6
aS'small'
p7173
aS'low'
p7174
aS'unacc'
p7175
aa(lp7176
S'high'
p7177
aS'high'
p7178
ag6
ag6
aS'small'
p7179
aS'med'
p7180
aS'unacc'
p7181
aa(lp7182
S'high'
p7183
aS'high'
p7184
ag6
ag6
aS'med'
p7185
aS'low'
p7186
aS'unacc'
p7187
aa(lp7188
S'high'
p7189
aS'high'
p7190
ag6
ag6
aS'big'
p7191
aS'low'
p7192
aS'unacc'
p7193
aa(lp7194
S'high'
p7195
aS'high'
p7196
ag6
aS'more'
p7197
aS'small'
p7198
aS'low'
p7199
aS'unacc'
p7200
aa(lp7201
S'high'
p7202
aS'high'
p7203
ag6
aS'more'
p7204
aS'small'
p7205
aS'med'
p7206
aS'unacc'
p7207
aa(lp7208
S'high'
p7209
aS'high'
p7210
ag6
aS'more'
p7211
aS'med'
p7212
aS'low'
p7213
aS'unacc'
p7214
aa(lp7215
S'high'
p7216
aS'high'
p7217
ag6
aS'more'
p7218
aS'big'
p7219
aS'low'
p7220
aS'unacc'
p7221
aa(lp7222
S'high'
p7223
aS'high'
p7224
aS'5more'
p7225
ag42
aS'small'
p7226
aS'low'
p7227
aS'unacc'
p7228
aa(lp7229
S'high'
p7230
aS'high'
p7231
aS'5more'
p7232
ag42
aS'small'
p7233
aS'med'
p7234
aS'unacc'
p7235
aa(lp7236
S'high'
p7237
aS'high'
p7238
aS'5more'
p7239
ag42
aS'small'
p7240
aS'high'
p7241
aS'unacc'
p7242
aa(lp7243
S'high'
p7244
aS'high'
p7245
aS'5more'
p7246
ag42
aS'med'
p7247
aS'low'
p7248
aS'unacc'
p7249
aa(lp7250
S'high'
p7251
aS'high'
p7252
aS'5more'
p7253
ag42
aS'med'
p7254
aS'med'
p7255
aS'unacc'
p7256
aa(lp7257
S'high'
p7258
aS'high'
p7259
aS'5more'
p7260
ag42
aS'med'
p7261
aS'high'
p7262
aS'unacc'
p7263
aa(lp7264
S'high'
p7265
aS'high'
p7266
aS'5more'
p7267
ag42
aS'big'
p7268
aS'low'
p7269
aS'unacc'
p7270
aa(lp7271
S'high'
p7272
aS'high'
p7273
aS'5more'
p7274
ag42
aS'big'
p7275
aS'med'
p7276
aS'unacc'
p7277
aa(lp7278
S'high'
p7279
aS'high'
p7280
aS'5more'
p7281
ag42
aS'big'
p7282
aS'high'
p7283
aS'unacc'
p7284
aa(lp7285
S'high'
p7286
aS'high'
p7287
aS'5more'
p7288
ag6
aS'small'
p7289
aS'low'
p7290
aS'unacc'
p7291
aa(lp7292
S'high'
p7293
aS'high'
p7294
aS'5more'
p7295
ag6
aS'small'
p7296
aS'med'
p7297
aS'unacc'
p7298
aa(lp7299
S'high'
p7300
aS'high'
p7301
aS'5more'
p7302
ag6
aS'med'
p7303
aS'low'
p7304
aS'unacc'
p7305
aa(lp7306
S'high'
p7307
aS'high'
p7308
aS'5more'
p7309
ag6
aS'big'
p7310
aS'low'
p7311
aS'unacc'
p7312
aa(lp7313
S'high'
p7314
aS'high'
p7315
aS'5more'
p7316
aS'more'
p7317
aS'small'
p7318
aS'low'
p7319
aS'unacc'
p7320
aa(lp7321
S'high'
p7322
aS'high'
p7323
aS'5more'
p7324
aS'more'
p7325
aS'small'
p7326
aS'med'
p7327
aS'unacc'
p7328
aa(lp7329
S'high'
p7330
aS'high'
p7331
aS'5more'
p7332
aS'more'
p7333
aS'med'
p7334
aS'low'
p7335
aS'unacc'
p7336
aa(lp7337
S'high'
p7338
aS'high'
p7339
aS'5more'
p7340
aS'more'
p7341
aS'big'
p7342
aS'low'
p7343
aS'unacc'
p7344
aa(lp7345
S'high'
p7346
aS'med'
p7347
ag42
ag42
aS'small'
p7348
aS'low'
p7349
aS'unacc'
p7350
aa(lp7351
S'high'
p7352
aS'med'
p7353
ag42
ag42
aS'small'
p7354
aS'med'
p7355
aS'unacc'
p7356
aa(lp7357
S'high'
p7358
aS'med'
p7359
ag42
ag42
aS'small'
p7360
aS'high'
p7361
aS'unacc'
p7362
aa(lp7363
S'high'
p7364
aS'med'
p7365
ag42
ag42
aS'med'
p7366
aS'low'
p7367
aS'unacc'
p7368
aa(lp7369
S'high'
p7370
aS'med'
p7371
ag42
ag42
aS'med'
p7372
aS'med'
p7373
aS'unacc'
p7374
aa(lp7375
S'high'
p7376
aS'med'
p7377
ag42
ag42
aS'med'
p7378
aS'high'
p7379
aS'unacc'
p7380
aa(lp7381
S'high'
p7382
aS'med'
p7383
ag42
ag42
aS'big'
p7384
aS'low'
p7385
aS'unacc'
p7386
aa(lp7387
S'high'
p7388
aS'med'
p7389
ag42
ag42
aS'big'
p7390
aS'med'
p7391
aS'unacc'
p7392
aa(lp7393
S'high'
p7394
aS'med'
p7395
ag42
ag42
aS'big'
p7396
aS'high'
p7397
aS'unacc'
p7398
aa(lp7399
S'high'
p7400
aS'med'
p7401
ag42
ag6
aS'small'
p7402
aS'low'
p7403
aS'unacc'
p7404
aa(lp7405
S'high'
p7406
aS'med'
p7407
ag42
ag6
aS'small'
p7408
aS'med'
p7409
aS'unacc'
p7410
aa(lp7411
S'high'
p7412
aS'med'
p7413
ag42
ag6
aS'med'
p7414
aS'low'
p7415
aS'unacc'
p7416
aa(lp7417
S'high'
p7418
aS'med'
p7419
ag42
ag6
aS'med'
p7420
aS'med'
p7421
aS'unacc'
p7422
aa(lp7423
S'high'
p7424
aS'med'
p7425
ag42
ag6
aS'big'
p7426
aS'low'
p7427
aS'unacc'
p7428
aa(lp7429
S'high'
p7430
aS'med'
p7431
ag42
aS'more'
p7432
aS'small'
p7433
aS'low'
p7434
aS'unacc'
p7435
aa(lp7436
S'high'
p7437
aS'med'
p7438
ag42
aS'more'
p7439
aS'small'
p7440
aS'med'
p7441
aS'unacc'
p7442
aa(lp7443
S'high'
p7444
aS'med'
p7445
ag42
aS'more'
p7446
aS'small'
p7447
aS'high'
p7448
aS'unacc'
p7449
aa(lp7450
S'high'
p7451
aS'med'
p7452
ag42
aS'more'
p7453
aS'med'
p7454
aS'low'
p7455
aS'unacc'
p7456
aa(lp7457
S'high'
p7458
aS'med'
p7459
ag42
aS'more'
p7460
aS'med'
p7461
aS'med'
p7462
aS'unacc'
p7463
aa(lp7464
S'high'
p7465
aS'med'
p7466
ag42
aS'more'
p7467
aS'big'
p7468
aS'low'
p7469
aS'unacc'
p7470
aa(lp7471
S'high'
p7472
aS'med'
p7473
ag272
ag42
aS'small'
p7474
aS'low'
p7475
aS'unacc'
p7476
aa(lp7477
S'high'
p7478
aS'med'
p7479
ag272
ag42
aS'small'
p7480
aS'med'
p7481
aS'unacc'
p7482
aa(lp7483
S'high'
p7484
aS'med'
p7485
ag272
ag42
aS'small'
p7486
aS'high'
p7487
aS'unacc'
p7488
aa(lp7489
S'high'
p7490
aS'med'
p7491
ag272
ag42
aS'med'
p7492
aS'low'
p7493
aS'unacc'
p7494
aa(lp7495
S'high'
p7496
aS'med'
p7497
ag272
ag42
aS'med'
p7498
aS'med'
p7499
aS'unacc'
p7500
aa(lp7501
S'high'
p7502
aS'med'
p7503
ag272
ag42
aS'med'
p7504
aS'high'
p7505
aS'unacc'
p7506
aa(lp7507
S'high'
p7508
aS'med'
p7509
ag272
ag42
aS'big'
p7510
aS'low'
p7511
aS'unacc'
p7512
aa(lp7513
S'high'
p7514
aS'med'
p7515
ag272
ag42
aS'big'
p7516
aS'med'
p7517
aS'unacc'
p7518
aa(lp7519
S'high'
p7520
aS'med'
p7521
ag272
ag42
aS'big'
p7522
aS'high'
p7523
aS'unacc'
p7524
aa(lp7525
S'high'
p7526
aS'med'
p7527
ag272
ag6
aS'small'
p7528
aS'low'
p7529
aS'unacc'
p7530
aa(lp7531
S'high'
p7532
aS'med'
p7533
ag272
ag6
aS'small'
p7534
aS'med'
p7535
aS'unacc'
p7536
aa(lp7537
S'high'
p7538
aS'med'
p7539
ag272
ag6
aS'med'
p7540
aS'low'
p7541
aS'unacc'
p7542
aa(lp7543
S'high'
p7544
aS'med'
p7545
ag272
ag6
aS'med'
p7546
aS'med'
p7547
aS'unacc'
p7548
aa(lp7549
S'high'
p7550
aS'med'
p7551
ag272
ag6
aS'big'
p7552
aS'low'
p7553
aS'unacc'
p7554
aa(lp7555
S'high'
p7556
aS'med'
p7557
ag272
aS'more'
p7558
aS'small'
p7559
aS'low'
p7560
aS'unacc'
p7561
aa(lp7562
S'high'
p7563
aS'med'
p7564
ag272
aS'more'
p7565
aS'small'
p7566
aS'med'
p7567
aS'unacc'
p7568
aa(lp7569
S'high'
p7570
aS'med'
p7571
ag272
aS'more'
p7572
aS'med'
p7573
aS'low'
p7574
aS'unacc'
p7575
aa(lp7576
S'high'
p7577
aS'med'
p7578
ag272
aS'more'
p7579
aS'big'
p7580
aS'low'
p7581
aS'unacc'
p7582
aa(lp7583
S'high'
p7584
aS'med'
p7585
ag6
ag42
aS'small'
p7586
aS'low'
p7587
aS'unacc'
p7588
aa(lp7589
S'high'
p7590
aS'med'
p7591
ag6
ag42
aS'small'
p7592
aS'med'
p7593
aS'unacc'
p7594
aa(lp7595
S'high'
p7596
aS'med'
p7597
ag6
ag42
aS'small'
p7598
aS'high'
p7599
aS'unacc'
p7600
aa(lp7601
S'high'
p7602
aS'med'
p7603
ag6
ag42
aS'med'
p7604
aS'low'
p7605
aS'unacc'
p7606
aa(lp7607
S'high'
p7608
aS'med'
p7609
ag6
ag42
aS'med'
p7610
aS'med'
p7611
aS'unacc'
p7612
aa(lp7613
S'high'
p7614
aS'med'
p7615
ag6
ag42
aS'med'
p7616
aS'high'
p7617
aS'unacc'
p7618
aa(lp7619
S'high'
p7620
aS'med'
p7621
ag6
ag42
aS'big'
p7622
aS'low'
p7623
aS'unacc'
p7624
aa(lp7625
S'high'
p7626
aS'med'
p7627
ag6
ag42
aS'big'
p7628
aS'med'
p7629
aS'unacc'
p7630
aa(lp7631
S'high'
p7632
aS'med'
p7633
ag6
ag42
aS'big'
p7634
aS'high'
p7635
aS'unacc'
p7636
aa(lp7637
S'high'
p7638
aS'med'
p7639
ag6
ag6
aS'small'
p7640
aS'low'
p7641
aS'unacc'
p7642
aa(lp7643
S'high'
p7644
aS'med'
p7645
ag6
ag6
aS'small'
p7646
aS'med'
p7647
aS'unacc'
p7648
aa(lp7649
S'high'
p7650
aS'med'
p7651
ag6
ag6
aS'med'
p7652
aS'low'
p7653
aS'unacc'
p7654
aa(lp7655
S'high'
p7656
aS'med'
p7657
ag6
ag6
aS'big'
p7658
aS'low'
p7659
aS'unacc'
p7660
aa(lp7661
S'high'
p7662
aS'med'
p7663
ag6
aS'more'
p7664
aS'small'
p7665
aS'low'
p7666
aS'unacc'
p7667
aa(lp7668
S'high'
p7669
aS'med'
p7670
ag6
aS'more'
p7671
aS'small'
p7672
aS'med'
p7673
aS'unacc'
p7674
aa(lp7675
S'high'
p7676
aS'med'
p7677
ag6
aS'more'
p7678
aS'med'
p7679
aS'low'
p7680
aS'unacc'
p7681
aa(lp7682
S'high'
p7683
aS'med'
p7684
ag6
aS'more'
p7685
aS'big'
p7686
aS'low'
p7687
aS'unacc'
p7688
aa(lp7689
S'high'
p7690
aS'med'
p7691
aS'5more'
p7692
ag42
aS'small'
p7693
aS'low'
p7694
aS'unacc'
p7695
aa(lp7696
S'high'
p7697
aS'med'
p7698
aS'5more'
p7699
ag42
aS'small'
p7700
aS'med'
p7701
aS'unacc'
p7702
aa(lp7703
S'high'
p7704
aS'med'
p7705
aS'5more'
p7706
ag42
aS'small'
p7707
aS'high'
p7708
aS'unacc'
p7709
aa(lp7710
S'high'
p7711
aS'med'
p7712
aS'5more'
p7713
ag42
aS'med'
p7714
aS'low'
p7715
aS'unacc'
p7716
aa(lp7717
S'high'
p7718
aS'med'
p7719
aS'5more'
p7720
ag42
aS'med'
p7721
aS'med'
p7722
aS'unacc'
p7723
aa(lp7724
S'high'
p7725
aS'med'
p7726
aS'5more'
p7727
ag42
aS'med'
p7728
aS'high'
p7729
aS'unacc'
p7730
aa(lp7731
S'high'
p7732
aS'med'
p7733
aS'5more'
p7734
ag42
aS'big'
p7735
aS'low'
p7736
aS'unacc'
p7737
aa(lp7738
S'high'
p7739
aS'med'
p7740
aS'5more'
p7741
ag42
aS'big'
p7742
aS'med'
p7743
aS'unacc'
p7744
aa(lp7745
S'high'
p7746
aS'med'
p7747
aS'5more'
p7748
ag42
aS'big'
p7749
aS'high'
p7750
aS'unacc'
p7751
aa(lp7752
S'high'
p7753
aS'med'
p7754
aS'5more'
p7755
ag6
aS'small'
p7756
aS'low'
p7757
aS'unacc'
p7758
aa(lp7759
S'high'
p7760
aS'med'
p7761
aS'5more'
p7762
ag6
aS'small'
p7763
aS'med'
p7764
aS'unacc'
p7765
aa(lp7766
S'high'
p7767
aS'med'
p7768
aS'5more'
p7769
ag6
aS'med'
p7770
aS'low'
p7771
aS'unacc'
p7772
aa(lp7773
S'high'
p7774
aS'med'
p7775
aS'5more'
p7776
ag6
aS'big'
p7777
aS'low'
p7778
aS'unacc'
p7779
aa(lp7780
S'high'
p7781
aS'med'
p7782
aS'5more'
p7783
aS'more'
p7784
aS'small'
p7785
aS'low'
p7786
aS'unacc'
p7787
aa(lp7788
S'high'
p7789
aS'med'
p7790
aS'5more'
p7791
aS'more'
p7792
aS'small'
p7793
aS'med'
p7794
aS'unacc'
p7795
aa(lp7796
S'high'
p7797
aS'med'
p7798
aS'5more'
p7799
aS'more'
p7800
aS'med'
p7801
aS'low'
p7802
aS'unacc'
p7803
aa(lp7804
S'high'
p7805
aS'med'
p7806
aS'5more'
p7807
aS'more'
p7808
aS'big'
p7809
aS'low'
p7810
aS'unacc'
p7811
aa(lp7812
S'high'
p7813
aS'low'
p7814
ag42
ag42
aS'small'
p7815
aS'low'
p7816
aS'unacc'
p7817
aa(lp7818
S'high'
p7819
aS'low'
p7820
ag42
ag42
aS'small'
p7821
aS'med'
p7822
aS'unacc'
p7823
aa(lp7824
S'high'
p7825
aS'low'
p7826
ag42
ag42
aS'small'
p7827
aS'high'
p7828
aS'unacc'
p7829
aa(lp7830
S'high'
p7831
aS'low'
p7832
ag42
ag42
aS'med'
p7833
aS'low'
p7834
aS'unacc'
p7835
aa(lp7836
S'high'
p7837
aS'low'
p7838
ag42
ag42
aS'med'
p7839
aS'med'
p7840
aS'unacc'
p7841
aa(lp7842
S'high'
p7843
aS'low'
p7844
ag42
ag42
aS'med'
p7845
aS'high'
p7846
aS'unacc'
p7847
aa(lp7848
S'high'
p7849
aS'low'
p7850
ag42
ag42
aS'big'
p7851
aS'low'
p7852
aS'unacc'
p7853
aa(lp7854
S'high'
p7855
aS'low'
p7856
ag42
ag42
aS'big'
p7857
aS'med'
p7858
aS'unacc'
p7859
aa(lp7860
S'high'
p7861
aS'low'
p7862
ag42
ag42
aS'big'
p7863
aS'high'
p7864
aS'unacc'
p7865
aa(lp7866
S'high'
p7867
aS'low'
p7868
ag42
ag6
aS'small'
p7869
aS'low'
p7870
aS'unacc'
p7871
aa(lp7872
S'high'
p7873
aS'low'
p7874
ag42
ag6
aS'small'
p7875
aS'med'
p7876
aS'unacc'
p7877
aa(lp7878
S'high'
p7879
aS'low'
p7880
ag42
ag6
aS'med'
p7881
aS'low'
p7882
aS'unacc'
p7883
aa(lp7884
S'high'
p7885
aS'low'
p7886
ag42
ag6
aS'med'
p7887
aS'med'
p7888
aS'unacc'
p7889
aa(lp7890
S'high'
p7891
aS'low'
p7892
ag42
ag6
aS'big'
p7893
aS'low'
p7894
aS'unacc'
p7895
aa(lp7896
S'high'
p7897
aS'low'
p7898
ag42
aS'more'
p7899
aS'small'
p7900
aS'low'
p7901
aS'unacc'
p7902
aa(lp7903
S'high'
p7904
aS'low'
p7905
ag42
aS'more'
p7906
aS'small'
p7907
aS'med'
p7908
aS'unacc'
p7909
aa(lp7910
S'high'
p7911
aS'low'
p7912
ag42
aS'more'
p7913
aS'small'
p7914
aS'high'
p7915
aS'unacc'
p7916
aa(lp7917
S'high'
p7918
aS'low'
p7919
ag42
aS'more'
p7920
aS'med'
p7921
aS'low'
p7922
aS'unacc'
p7923
aa(lp7924
S'high'
p7925
aS'low'
p7926
ag42
aS'more'
p7927
aS'med'
p7928
aS'med'
p7929
aS'unacc'
p7930
aa(lp7931
S'high'
p7932
aS'low'
p7933
ag42
aS'more'
p7934
aS'big'
p7935
aS'low'
p7936
aS'unacc'
p7937
aa(lp7938
S'high'
p7939
aS'low'
p7940
ag272
ag42
aS'small'
p7941
aS'low'
p7942
aS'unacc'
p7943
aa(lp7944
S'high'
p7945
aS'low'
p7946
ag272
ag42
aS'small'
p7947
aS'med'
p7948
aS'unacc'
p7949
aa(lp7950
S'high'
p7951
aS'low'
p7952
ag272
ag42
aS'small'
p7953
aS'high'
p7954
aS'unacc'
p7955
aa(lp7956
S'high'
p7957
aS'low'
p7958
ag272
ag42
aS'med'
p7959
aS'low'
p7960
aS'unacc'
p7961
aa(lp7962
S'high'
p7963
aS'low'
p7964
ag272
ag42
aS'med'
p7965
aS'med'
p7966
aS'unacc'
p7967
aa(lp7968
S'high'
p7969
aS'low'
p7970
ag272
ag42
aS'med'
p7971
aS'high'
p7972
aS'unacc'
p7973
aa(lp7974
S'high'
p7975
aS'low'
p7976
ag272
ag42
aS'big'
p7977
aS'low'
p7978
aS'unacc'
p7979
aa(lp7980
S'high'
p7981
aS'low'
p7982
ag272
ag42
aS'big'
p7983
aS'med'
p7984
aS'unacc'
p7985
aa(lp7986
S'high'
p7987
aS'low'
p7988
ag272
ag42
aS'big'
p7989
aS'high'
p7990
aS'unacc'
p7991
aa(lp7992
S'high'
p7993
aS'low'
p7994
ag272
ag6
aS'small'
p7995
aS'low'
p7996
aS'unacc'
p7997
aa(lp7998
S'high'
p7999
aS'low'
p8000
ag272
ag6
aS'small'
p8001
aS'med'
p8002
aS'unacc'
p8003
aa(lp8004
S'high'
p8005
aS'low'
p8006
ag272
ag6
aS'med'
p8007
aS'low'
p8008
aS'unacc'
p8009
aa(lp8010
S'high'
p8011
aS'low'
p8012
ag272
ag6
aS'med'
p8013
aS'med'
p8014
aS'unacc'
p8015
aa(lp8016
S'high'
p8017
aS'low'
p8018
ag272
ag6
aS'big'
p8019
aS'low'
p8020
aS'unacc'
p8021
aa(lp8022
S'high'
p8023
aS'low'
p8024
ag272
aS'more'
p8025
aS'small'
p8026
aS'low'
p8027
aS'unacc'
p8028
aa(lp8029
S'high'
p8030
aS'low'
p8031
ag272
aS'more'
p8032
aS'small'
p8033
aS'med'
p8034
aS'unacc'
p8035
aa(lp8036
S'high'
p8037
aS'low'
p8038
ag272
aS'more'
p8039
aS'med'
p8040
aS'low'
p8041
aS'unacc'
p8042
aa(lp8043
S'high'
p8044
aS'low'
p8045
ag272
aS'more'
p8046
aS'big'
p8047
aS'low'
p8048
aS'unacc'
p8049
aa(lp8050
S'high'
p8051
aS'low'
p8052
ag6
ag42
aS'small'
p8053
aS'low'
p8054
aS'unacc'
p8055
aa(lp8056
S'high'
p8057
aS'low'
p8058
ag6
ag42
aS'small'
p8059
aS'med'
p8060
aS'unacc'
p8061
aa(lp8062
S'high'
p8063
aS'low'
p8064
ag6
ag42
aS'small'
p8065
aS'high'
p8066
aS'unacc'
p8067
aa(lp8068
S'high'
p8069
aS'low'
p8070
ag6
ag42
aS'med'
p8071
aS'low'
p8072
aS'unacc'
p8073
aa(lp8074
S'high'
p8075
aS'low'
p8076
ag6
ag42
aS'med'
p8077
aS'med'
p8078
aS'unacc'
p8079
aa(lp8080
S'high'
p8081
aS'low'
p8082
ag6
ag42
aS'med'
p8083
aS'high'
p8084
aS'unacc'
p8085
aa(lp8086
S'high'
p8087
aS'low'
p8088
ag6
ag42
aS'big'
p8089
aS'low'
p8090
aS'unacc'
p8091
aa(lp8092
S'high'
p8093
aS'low'
p8094
ag6
ag42
aS'big'
p8095
aS'med'
p8096
aS'unacc'
p8097
aa(lp8098
S'high'
p8099
aS'low'
p8100
ag6
ag42
aS'big'
p8101
aS'high'
p8102
aS'unacc'
p8103
aa(lp8104
S'high'
p8105
aS'low'
p8106
ag6
ag6
aS'small'
p8107
aS'low'
p8108
aS'unacc'
p8109
aa(lp8110
S'high'
p8111
aS'low'
p8112
ag6
ag6
aS'small'
p8113
aS'med'
p8114
aS'unacc'
p8115
aa(lp8116
S'high'
p8117
aS'low'
p8118
ag6
ag6
aS'med'
p8119
aS'low'
p8120
aS'unacc'
p8121
aa(lp8122
S'high'
p8123
aS'low'
p8124
ag6
ag6
aS'big'
p8125
aS'low'
p8126
aS'unacc'
p8127
aa(lp8128
S'high'
p8129
aS'low'
p8130
ag6
aS'more'
p8131
aS'small'
p8132
aS'low'
p8133
aS'unacc'
p8134
aa(lp8135
S'high'
p8136
aS'low'
p8137
ag6
aS'more'
p8138
aS'small'
p8139
aS'med'
p8140
aS'unacc'
p8141
aa(lp8142
S'high'
p8143
aS'low'
p8144
ag6
aS'more'
p8145
aS'med'
p8146
aS'low'
p8147
aS'unacc'
p8148
aa(lp8149
S'high'
p8150
aS'low'
p8151
ag6
aS'more'
p8152
aS'big'
p8153
aS'low'
p8154
aS'unacc'
p8155
aa(lp8156
S'high'
p8157
aS'low'
p8158
aS'5more'
p8159
ag42
aS'small'
p8160
aS'low'
p8161
aS'unacc'
p8162
aa(lp8163
S'high'
p8164
aS'low'
p8165
aS'5more'
p8166
ag42
aS'small'
p8167
aS'med'
p8168
aS'unacc'
p8169
aa(lp8170
S'high'
p8171
aS'low'
p8172
aS'5more'
p8173
ag42
aS'small'
p8174
aS'high'
p8175
aS'unacc'
p8176
aa(lp8177
S'high'
p8178
aS'low'
p8179
aS'5more'
p8180
ag42
aS'med'
p8181
aS'low'
p8182
aS'unacc'
p8183
aa(lp8184
S'high'
p8185
aS'low'
p8186
aS'5more'
p8187
ag42
aS'med'
p8188
aS'med'
p8189
aS'unacc'
p8190
aa(lp8191
S'high'
p8192
aS'low'
p8193
aS'5more'
p8194
ag42
aS'med'
p8195
aS'high'
p8196
aS'unacc'
p8197
aa(lp8198
S'high'
p8199
aS'low'
p8200
aS'5more'
p8201
ag42
aS'big'
p8202
aS'low'
p8203
aS'unacc'
p8204
aa(lp8205
S'high'
p8206
aS'low'
p8207
aS'5more'
p8208
ag42
aS'big'
p8209
aS'med'
p8210
aS'unacc'
p8211
aa(lp8212
S'high'
p8213
aS'low'
p8214
aS'5more'
p8215
ag42
aS'big'
p8216
aS'high'
p8217
aS'unacc'
p8218
aa(lp8219
S'high'
p8220
aS'low'
p8221
aS'5more'
p8222
ag6
aS'small'
p8223
aS'low'
p8224
aS'unacc'
p8225
aa(lp8226
S'high'
p8227
aS'low'
p8228
aS'5more'
p8229
ag6
aS'small'
p8230
aS'med'
p8231
aS'unacc'
p8232
aa(lp8233
S'high'
p8234
aS'low'
p8235
aS'5more'
p8236
ag6
aS'med'
p8237
aS'low'
p8238
aS'unacc'
p8239
aa(lp8240
S'high'
p8241
aS'low'
p8242
aS'5more'
p8243
ag6
aS'big'
p8244
aS'low'
p8245
aS'unacc'
p8246
aa(lp8247
S'high'
p8248
aS'low'
p8249
aS'5more'
p8250
aS'more'
p8251
aS'small'
p8252
aS'low'
p8253
aS'unacc'
p8254
aa(lp8255
S'high'
p8256
aS'low'
p8257
aS'5more'
p8258
aS'more'
p8259
aS'small'
p8260
aS'med'
p8261
aS'unacc'
p8262
aa(lp8263
S'high'
p8264
aS'low'
p8265
aS'5more'
p8266
aS'more'
p8267
aS'med'
p8268
aS'low'
p8269
aS'unacc'
p8270
aa(lp8271
S'high'
p8272
aS'low'
p8273
aS'5more'
p8274
aS'more'
p8275
aS'big'
p8276
aS'low'
p8277
aS'unacc'
p8278
aa(lp8279
S'med'
p8280
aS'vhigh'
p8281
ag42
ag42
aS'small'
p8282
aS'low'
p8283
aS'unacc'
p8284
aa(lp8285
S'med'
p8286
aS'vhigh'
p8287
ag42
ag42
aS'small'
p8288
aS'med'
p8289
aS'unacc'
p8290
aa(lp8291
S'med'
p8292
aS'vhigh'
p8293
ag42
ag42
aS'small'
p8294
aS'high'
p8295
aS'unacc'
p8296
aa(lp8297
S'med'
p8298
aS'vhigh'
p8299
ag42
ag42
aS'med'
p8300
aS'low'
p8301
aS'unacc'
p8302
aa(lp8303
S'med'
p8304
aS'vhigh'
p8305
ag42
ag42
aS'med'
p8306
aS'med'
p8307
aS'unacc'
p8308
aa(lp8309
S'med'
p8310
aS'vhigh'
p8311
ag42
ag42
aS'med'
p8312
aS'high'
p8313
aS'unacc'
p8314
aa(lp8315
S'med'
p8316
aS'vhigh'
p8317
ag42
ag42
aS'big'
p8318
aS'low'
p8319
aS'unacc'
p8320
aa(lp8321
S'med'
p8322
aS'vhigh'
p8323
ag42
ag42
aS'big'
p8324
aS'med'
p8325
aS'unacc'
p8326
aa(lp8327
S'med'
p8328
aS'vhigh'
p8329
ag42
ag42
aS'big'
p8330
aS'high'
p8331
aS'unacc'
p8332
aa(lp8333
S'med'
p8334
aS'vhigh'
p8335
ag42
ag6
aS'small'
p8336
aS'low'
p8337
aS'unacc'
p8338
aa(lp8339
S'med'
p8340
aS'vhigh'
p8341
ag42
ag6
aS'small'
p8342
aS'med'
p8343
aS'unacc'
p8344
aa(lp8345
S'med'
p8346
aS'vhigh'
p8347
ag42
ag6
aS'med'
p8348
aS'low'
p8349
aS'unacc'
p8350
aa(lp8351
S'med'
p8352
aS'vhigh'
p8353
ag42
ag6
aS'med'
p8354
aS'med'
p8355
aS'unacc'
p8356
aa(lp8357
S'med'
p8358
aS'vhigh'
p8359
ag42
ag6
aS'big'
p8360
aS'low'
p8361
aS'unacc'
p8362
aa(lp8363
S'med'
p8364
aS'vhigh'
p8365
ag42
aS'more'
p8366
aS'small'
p8367
aS'low'
p8368
aS'unacc'
p8369
aa(lp8370
S'med'
p8371
aS'vhigh'
p8372
ag42
aS'more'
p8373
aS'small'
p8374
aS'med'
p8375
aS'unacc'
p8376
aa(lp8377
S'med'
p8378
aS'vhigh'
p8379
ag42
aS'more'
p8380
aS'small'
p8381
aS'high'
p8382
aS'unacc'
p8383
aa(lp8384
S'med'
p8385
aS'vhigh'
p8386
ag42
aS'more'
p8387
aS'med'
p8388
aS'low'
p8389
aS'unacc'
p8390
aa(lp8391
S'med'
p8392
aS'vhigh'
p8393
ag42
aS'more'
p8394
aS'med'
p8395
aS'med'
p8396
aS'unacc'
p8397
aa(lp8398
S'med'
p8399
aS'vhigh'
p8400
ag42
aS'more'
p8401
aS'big'
p8402
aS'low'
p8403
aS'unacc'
p8404
aa(lp8405
S'med'
p8406
aS'vhigh'
p8407
ag272
ag42
aS'small'
p8408
aS'low'
p8409
aS'unacc'
p8410
aa(lp8411
S'med'
p8412
aS'vhigh'
p8413
ag272
ag42
aS'small'
p8414
aS'med'
p8415
aS'unacc'
p8416
aa(lp8417
S'med'
p8418
aS'vhigh'
p8419
ag272
ag42
aS'small'
p8420
aS'high'
p8421
aS'unacc'
p8422
aa(lp8423
S'med'
p8424
aS'vhigh'
p8425
ag272
ag42
aS'med'
p8426
aS'low'
p8427
aS'unacc'
p8428
aa(lp8429
S'med'
p8430
aS'vhigh'
p8431
ag272
ag42
aS'med'
p8432
aS'med'
p8433
aS'unacc'
p8434
aa(lp8435
S'med'
p8436
aS'vhigh'
p8437
ag272
ag42
aS'med'
p8438
aS'high'
p8439
aS'unacc'
p8440
aa(lp8441
S'med'
p8442
aS'vhigh'
p8443
ag272
ag42
aS'big'
p8444
aS'low'
p8445
aS'unacc'
p8446
aa(lp8447
S'med'
p8448
aS'vhigh'
p8449
ag272
ag42
aS'big'
p8450
aS'med'
p8451
aS'unacc'
p8452
aa(lp8453
S'med'
p8454
aS'vhigh'
p8455
ag272
ag42
aS'big'
p8456
aS'high'
p8457
aS'unacc'
p8458
aa(lp8459
S'med'
p8460
aS'vhigh'
p8461
ag272
ag6
aS'small'
p8462
aS'low'
p8463
aS'unacc'
p8464
aa(lp8465
S'med'
p8466
aS'vhigh'
p8467
ag272
ag6
aS'small'
p8468
aS'med'
p8469
aS'unacc'
p8470
aa(lp8471
S'med'
p8472
aS'vhigh'
p8473
ag272
ag6
aS'med'
p8474
aS'low'
p8475
aS'unacc'
p8476
aa(lp8477
S'med'
p8478
aS'vhigh'
p8479
ag272
ag6
aS'med'
p8480
aS'med'
p8481
aS'unacc'
p8482
aa(lp8483
S'med'
p8484
aS'vhigh'
p8485
ag272
ag6
aS'big'
p8486
aS'low'
p8487
aS'unacc'
p8488
aa(lp8489
S'med'
p8490
aS'vhigh'
p8491
ag272
aS'more'
p8492
aS'small'
p8493
aS'low'
p8494
aS'unacc'
p8495
aa(lp8496
S'med'
p8497
aS'vhigh'
p8498
ag272
aS'more'
p8499
aS'small'
p8500
aS'med'
p8501
aS'unacc'
p8502
aa(lp8503
S'med'
p8504
aS'vhigh'
p8505
ag272
aS'more'
p8506
aS'med'
p8507
aS'low'
p8508
aS'unacc'
p8509
aa(lp8510
S'med'
p8511
aS'vhigh'
p8512
ag272
aS'more'
p8513
aS'big'
p8514
aS'low'
p8515
aS'unacc'
p8516
aa(lp8517
S'med'
p8518
aS'vhigh'
p8519
ag6
ag42
aS'small'
p8520
aS'low'
p8521
aS'unacc'
p8522
aa(lp8523
S'med'
p8524
aS'vhigh'
p8525
ag6
ag42
aS'small'
p8526
aS'med'
p8527
aS'unacc'
p8528
aa(lp8529
S'med'
p8530
aS'vhigh'
p8531
ag6
ag42
aS'small'
p8532
aS'high'
p8533
aS'unacc'
p8534
aa(lp8535
S'med'
p8536
aS'vhigh'
p8537
ag6
ag42
aS'med'
p8538
aS'low'
p8539
aS'unacc'
p8540
aa(lp8541
S'med'
p8542
aS'vhigh'
p8543
ag6
ag42
aS'med'
p8544
aS'med'
p8545
aS'unacc'
p8546
aa(lp8547
S'med'
p8548
aS'vhigh'
p8549
ag6
ag42
aS'med'
p8550
aS'high'
p8551
aS'unacc'
p8552
aa(lp8553
S'med'
p8554
aS'vhigh'
p8555
ag6
ag42
aS'big'
p8556
aS'low'
p8557
aS'unacc'
p8558
aa(lp8559
S'med'
p8560
aS'vhigh'
p8561
ag6
ag42
aS'big'
p8562
aS'med'
p8563
aS'unacc'
p8564
aa(lp8565
S'med'
p8566
aS'vhigh'
p8567
ag6
ag42
aS'big'
p8568
aS'high'
p8569
aS'unacc'
p8570
aa(lp8571
S'med'
p8572
aS'vhigh'
p8573
ag6
ag6
aS'small'
p8574
aS'low'
p8575
aS'unacc'
p8576
aa(lp8577
S'med'
p8578
aS'vhigh'
p8579
ag6
ag6
aS'small'
p8580
aS'med'
p8581
aS'unacc'
p8582
aa(lp8583
S'med'
p8584
aS'vhigh'
p8585
ag6
ag6
aS'med'
p8586
aS'low'
p8587
aS'unacc'
p8588
aa(lp8589
S'med'
p8590
aS'vhigh'
p8591
ag6
ag6
aS'big'
p8592
aS'low'
p8593
aS'unacc'
p8594
aa(lp8595
S'med'
p8596
aS'vhigh'
p8597
ag6
aS'more'
p8598
aS'small'
p8599
aS'low'
p8600
aS'unacc'
p8601
aa(lp8602
S'med'
p8603
aS'vhigh'
p8604
ag6
aS'more'
p8605
aS'small'
p8606
aS'med'
p8607
aS'unacc'
p8608
aa(lp8609
S'med'
p8610
aS'vhigh'
p8611
ag6
aS'more'
p8612
aS'med'
p8613
aS'low'
p8614
aS'unacc'
p8615
aa(lp8616
S'med'
p8617
aS'vhigh'
p8618
ag6
aS'more'
p8619
aS'big'
p8620
aS'low'
p8621
aS'unacc'
p8622
aa(lp8623
S'med'
p8624
aS'vhigh'
p8625
aS'5more'
p8626
ag42
aS'small'
p8627
aS'low'
p8628
aS'unacc'
p8629
aa(lp8630
S'med'
p8631
aS'vhigh'
p8632
aS'5more'
p8633
ag42
aS'small'
p8634
aS'med'
p8635
aS'unacc'
p8636
aa(lp8637
S'med'
p8638
aS'vhigh'
p8639
aS'5more'
p8640
ag42
aS'small'
p8641
aS'high'
p8642
aS'unacc'
p8643
aa(lp8644
S'med'
p8645
aS'vhigh'
p8646
aS'5more'
p8647
ag42
aS'med'
p8648
aS'low'
p8649
aS'unacc'
p8650
aa(lp8651
S'med'
p8652
aS'vhigh'
p8653
aS'5more'
p8654
ag42
aS'med'
p8655
aS'med'
p8656
aS'unacc'
p8657
aa(lp8658
S'med'
p8659
aS'vhigh'
p8660
aS'5more'
p8661
ag42
aS'med'
p8662
aS'high'
p8663
aS'unacc'
p8664
aa(lp8665
S'med'
p8666
aS'vhigh'
p8667
aS'5more'
p8668
ag42
aS'big'
p8669
aS'low'
p8670
aS'unacc'
p8671
aa(lp8672
S'med'
p8673
aS'vhigh'
p8674
aS'5more'
p8675
ag42
aS'big'
p8676
aS'med'
p8677
aS'unacc'
p8678
aa(lp8679
S'med'
p8680
aS'vhigh'
p8681
aS'5more'
p8682
ag42
aS'big'
p8683
aS'high'
p8684
aS'unacc'
p8685
aa(lp8686
S'med'
p8687
aS'vhigh'
p8688
aS'5more'
p8689
ag6
aS'small'
p8690
aS'low'
p8691
aS'unacc'
p8692
aa(lp8693
S'med'
p8694
aS'vhigh'
p8695
aS'5more'
p8696
ag6
aS'small'
p8697
aS'med'
p8698
aS'unacc'
p8699
aa(lp8700
S'med'
p8701
aS'vhigh'
p8702
aS'5more'
p8703
ag6
aS'med'
p8704
aS'low'
p8705
aS'unacc'
p8706
aa(lp8707
S'med'
p8708
aS'vhigh'
p8709
aS'5more'
p8710
ag6
aS'big'
p8711
aS'low'
p8712
aS'unacc'
p8713
aa(lp8714
S'med'
p8715
aS'vhigh'
p8716
aS'5more'
p8717
aS'more'
p8718
aS'small'
p8719
aS'low'
p8720
aS'unacc'
p8721
aa(lp8722
S'med'
p8723
aS'vhigh'
p8724
aS'5more'
p8725
aS'more'
p8726
aS'small'
p8727
aS'med'
p8728
aS'unacc'
p8729
aa(lp8730
S'med'
p8731
aS'vhigh'
p8732
aS'5more'
p8733
aS'more'
p8734
aS'med'
p8735
aS'low'
p8736
aS'unacc'
p8737
aa(lp8738
S'med'
p8739
aS'vhigh'
p8740
aS'5more'
p8741
aS'more'
p8742
aS'big'
p8743
aS'low'
p8744
aS'unacc'
p8745
aa(lp8746
S'med'
p8747
aS'high'
p8748
ag42
ag42
aS'small'
p8749
aS'low'
p8750
aS'unacc'
p8751
aa(lp8752
S'med'
p8753
aS'high'
p8754
ag42
ag42
aS'small'
p8755
aS'med'
p8756
aS'unacc'
p8757
aa(lp8758
S'med'
p8759
aS'high'
p8760
ag42
ag42
aS'small'
p8761
aS'high'
p8762
aS'unacc'
p8763
aa(lp8764
S'med'
p8765
aS'high'
p8766
ag42
ag42
aS'med'
p8767
aS'low'
p8768
aS'unacc'
p8769
aa(lp8770
S'med'
p8771
aS'high'
p8772
ag42
ag42
aS'med'
p8773
aS'med'
p8774
aS'unacc'
p8775
aa(lp8776
S'med'
p8777
aS'high'
p8778
ag42
ag42
aS'med'
p8779
aS'high'
p8780
aS'unacc'
p8781
aa(lp8782
S'med'
p8783
aS'high'
p8784
ag42
ag42
aS'big'
p8785
aS'low'
p8786
aS'unacc'
p8787
aa(lp8788
S'med'
p8789
aS'high'
p8790
ag42
ag42
aS'big'
p8791
aS'med'
p8792
aS'unacc'
p8793
aa(lp8794
S'med'
p8795
aS'high'
p8796
ag42
ag42
aS'big'
p8797
aS'high'
p8798
aS'unacc'
p8799
aa(lp8800
S'med'
p8801
aS'high'
p8802
ag42
ag6
aS'small'
p8803
aS'low'
p8804
aS'unacc'
p8805
aa(lp8806
S'med'
p8807
aS'high'
p8808
ag42
ag6
aS'small'
p8809
aS'med'
p8810
aS'unacc'
p8811
aa(lp8812
S'med'
p8813
aS'high'
p8814
ag42
ag6
aS'med'
p8815
aS'low'
p8816
aS'unacc'
p8817
aa(lp8818
S'med'
p8819
aS'high'
p8820
ag42
ag6
aS'med'
p8821
aS'med'
p8822
aS'unacc'
p8823
aa(lp8824
S'med'
p8825
aS'high'
p8826
ag42
ag6
aS'big'
p8827
aS'low'
p8828
aS'unacc'
p8829
aa(lp8830
S'med'
p8831
aS'high'
p8832
ag42
aS'more'
p8833
aS'small'
p8834
aS'low'
p8835
aS'unacc'
p8836
aa(lp8837
S'med'
p8838
aS'high'
p8839
ag42
aS'more'
p8840
aS'small'
p8841
aS'med'
p8842
aS'unacc'
p8843
aa(lp8844
S'med'
p8845
aS'high'
p8846
ag42
aS'more'
p8847
aS'small'
p8848
aS'high'
p8849
aS'unacc'
p8850
aa(lp8851
S'med'
p8852
aS'high'
p8853
ag42
aS'more'
p8854
aS'med'
p8855
aS'low'
p8856
aS'unacc'
p8857
aa(lp8858
S'med'
p8859
aS'high'
p8860
ag42
aS'more'
p8861
aS'med'
p8862
aS'med'
p8863
aS'unacc'
p8864
aa(lp8865
S'med'
p8866
aS'high'
p8867
ag42
aS'more'
p8868
aS'big'
p8869
aS'low'
p8870
aS'unacc'
p8871
aa(lp8872
S'med'
p8873
aS'high'
p8874
ag272
ag42
aS'small'
p8875
aS'low'
p8876
aS'unacc'
p8877
aa(lp8878
S'med'
p8879
aS'high'
p8880
ag272
ag42
aS'small'
p8881
aS'med'
p8882
aS'unacc'
p8883
aa(lp8884
S'med'
p8885
aS'high'
p8886
ag272
ag42
aS'small'
p8887
aS'high'
p8888
aS'unacc'
p8889
aa(lp8890
S'med'
p8891
aS'high'
p8892
ag272
ag42
aS'med'
p8893
aS'low'
p8894
aS'unacc'
p8895
aa(lp8896
S'med'
p8897
aS'high'
p8898
ag272
ag42
aS'med'
p8899
aS'med'
p8900
aS'unacc'
p8901
aa(lp8902
S'med'
p8903
aS'high'
p8904
ag272
ag42
aS'med'
p8905
aS'high'
p8906
aS'unacc'
p8907
aa(lp8908
S'med'
p8909
aS'high'
p8910
ag272
ag42
aS'big'
p8911
aS'low'
p8912
aS'unacc'
p8913
aa(lp8914
S'med'
p8915
aS'high'
p8916
ag272
ag42
aS'big'
p8917
aS'med'
p8918
aS'unacc'
p8919
aa(lp8920
S'med'
p8921
aS'high'
p8922
ag272
ag42
aS'big'
p8923
aS'high'
p8924
aS'unacc'
p8925
aa(lp8926
S'med'
p8927
aS'high'
p8928
ag272
ag6
aS'small'
p8929
aS'low'
p8930
aS'unacc'
p8931
aa(lp8932
S'med'
p8933
aS'high'
p8934
ag272
ag6
aS'small'
p8935
aS'med'
p8936
aS'unacc'
p8937
aa(lp8938
S'med'
p8939
aS'high'
p8940
ag272
ag6
aS'med'
p8941
aS'low'
p8942
aS'unacc'
p8943
aa(lp8944
S'med'
p8945
aS'high'
p8946
ag272
ag6
aS'med'
p8947
aS'med'
p8948
aS'unacc'
p8949
aa(lp8950
S'med'
p8951
aS'high'
p8952
ag272
ag6
aS'big'
p8953
aS'low'
p8954
aS'unacc'
p8955
aa(lp8956
S'med'
p8957
aS'high'
p8958
ag272
aS'more'
p8959
aS'small'
p8960
aS'low'
p8961
aS'unacc'
p8962
aa(lp8963
S'med'
p8964
aS'high'
p8965
ag272
aS'more'
p8966
aS'small'
p8967
aS'med'
p8968
aS'unacc'
p8969
aa(lp8970
S'med'
p8971
aS'high'
p8972
ag272
aS'more'
p8973
aS'med'
p8974
aS'low'
p8975
aS'unacc'
p8976
aa(lp8977
S'med'
p8978
aS'high'
p8979
ag272
aS'more'
p8980
aS'big'
p8981
aS'low'
p8982
aS'unacc'
p8983
aa(lp8984
S'med'
p8985
aS'high'
p8986
ag6
ag42
aS'small'
p8987
aS'low'
p8988
aS'unacc'
p8989
aa(lp8990
S'med'
p8991
aS'high'
p8992
ag6
ag42
aS'small'
p8993
aS'med'
p8994
aS'unacc'
p8995
aa(lp8996
S'med'
p8997
aS'high'
p8998
ag6
ag42
aS'small'
p8999
aS'high'
p9000
aS'unacc'
p9001
aa(lp9002
S'med'
p9003
aS'high'
p9004
ag6
ag42
aS'med'
p9005
aS'low'
p9006
aS'unacc'
p9007
aa(lp9008
S'med'
p9009
aS'high'
p9010
ag6
ag42
aS'med'
p9011
aS'med'
p9012
aS'unacc'
p9013
aa(lp9014
S'med'
p9015
aS'high'
p9016
ag6
ag42
aS'med'
p9017
aS'high'
p9018
aS'unacc'
p9019
aa(lp9020
S'med'
p9021
aS'high'
p9022
ag6
ag42
aS'big'
p9023
aS'low'
p9024
aS'unacc'
p9025
aa(lp9026
S'med'
p9027
aS'high'
p9028
ag6
ag42
aS'big'
p9029
aS'med'
p9030
aS'unacc'
p9031
aa(lp9032
S'med'
p9033
aS'high'
p9034
ag6
ag42
aS'big'
p9035
aS'high'
p9036
aS'unacc'
p9037
aa(lp9038
S'med'
p9039
aS'high'
p9040
ag6
ag6
aS'small'
p9041
aS'low'
p9042
aS'unacc'
p9043
aa(lp9044
S'med'
p9045
aS'high'
p9046
ag6
ag6
aS'small'
p9047
aS'med'
p9048
aS'unacc'
p9049
aa(lp9050
S'med'
p9051
aS'high'
p9052
ag6
ag6
aS'med'
p9053
aS'low'
p9054
aS'unacc'
p9055
aa(lp9056
S'vhigh'
p9057
aS'med'
p9058
ag42
ag6
aS'small'
p9059
aS'high'
p9060
aS'acc'
p9061
aa(lp9062
S'vhigh'
p9063
aS'med'
p9064
ag42
ag6
aS'med'
p9065
aS'high'
p9066
aS'acc'
p9067
aa(lp9068
S'vhigh'
p9069
aS'med'
p9070
ag42
ag6
aS'big'
p9071
aS'med'
p9072
aS'acc'
p9073
aa(lp9074
S'vhigh'
p9075
aS'med'
p9076
ag42
ag6
aS'big'
p9077
aS'high'
p9078
aS'acc'
p9079
aa(lp9080
S'vhigh'
p9081
aS'med'
p9082
ag42
aS'more'
p9083
aS'med'
p9084
aS'high'
p9085
aS'acc'
p9086
aa(lp9087
S'vhigh'
p9088
aS'med'
p9089
ag42
aS'more'
p9090
aS'big'
p9091
aS'med'
p9092
aS'acc'
p9093
aa(lp9094
S'vhigh'
p9095
aS'med'
p9096
ag42
aS'more'
p9097
aS'big'
p9098
aS'high'
p9099
aS'acc'
p9100
aa(lp9101
S'vhigh'
p9102
aS'med'
p9103
ag272
ag6
aS'small'
p9104
aS'high'
p9105
aS'acc'
p9106
aa(lp9107
S'vhigh'
p9108
aS'med'
p9109
ag272
ag6
aS'med'
p9110
aS'high'
p9111
aS'acc'
p9112
aa(lp9113
S'vhigh'
p9114
aS'med'
p9115
ag272
ag6
aS'big'
p9116
aS'med'
p9117
aS'acc'
p9118
aa(lp9119
S'vhigh'
p9120
aS'med'
p9121
ag272
ag6
aS'big'
p9122
aS'high'
p9123
aS'acc'
p9124
aa(lp9125
S'vhigh'
p9126
aS'med'
p9127
ag272
aS'more'
p9128
aS'small'
p9129
aS'high'
p9130
aS'acc'
p9131
aa(lp9132
S'vhigh'
p9133
aS'med'
p9134
ag272
aS'more'
p9135
aS'med'
p9136
aS'med'
p9137
aS'acc'
p9138
aa(lp9139
S'vhigh'
p9140
aS'med'
p9141
ag272
aS'more'
p9142
aS'med'
p9143
aS'high'
p9144
aS'acc'
p9145
aa(lp9146
S'vhigh'
p9147
aS'med'
p9148
ag272
aS'more'
p9149
aS'big'
p9150
aS'med'
p9151
aS'acc'
p9152
aa(lp9153
S'vhigh'
p9154
aS'med'
p9155
ag272
aS'more'
p9156
aS'big'
p9157
aS'high'
p9158
aS'acc'
p9159
aa(lp9160
S'vhigh'
p9161
aS'med'
p9162
ag6
ag6
aS'small'
p9163
aS'high'
p9164
aS'acc'
p9165
aa(lp9166
S'vhigh'
p9167
aS'med'
p9168
ag6
ag6
aS'med'
p9169
aS'med'
p9170
aS'acc'
p9171
aa(lp9172
S'vhigh'
p9173
aS'med'
p9174
ag6
ag6
aS'med'
p9175
aS'high'
p9176
aS'acc'
p9177
aa(lp9178
S'vhigh'
p9179
aS'med'
p9180
ag6
ag6
aS'big'
p9181
aS'med'
p9182
aS'acc'
p9183
aa(lp9184
S'vhigh'
p9185
aS'med'
p9186
ag6
ag6
aS'big'
p9187
aS'high'
p9188
aS'acc'
p9189
aa(lp9190
S'vhigh'
p9191
aS'med'
p9192
ag6
aS'more'
p9193
aS'small'
p9194
aS'high'
p9195
aS'acc'
p9196
aa(lp9197
S'vhigh'
p9198
aS'med'
p9199
ag6
aS'more'
p9200
aS'med'
p9201
aS'med'
p9202
aS'acc'
p9203
aa(lp9204
S'vhigh'
p9205
aS'med'
p9206
ag6
aS'more'
p9207
aS'med'
p9208
aS'high'
p9209
aS'acc'
p9210
aa(lp9211
S'vhigh'
p9212
aS'med'
p9213
ag6
aS'more'
p9214
aS'big'
p9215
aS'med'
p9216
aS'acc'
p9217
aa(lp9218
S'vhigh'
p9219
aS'med'
p9220
ag6
aS'more'
p9221
aS'big'
p9222
aS'high'
p9223
aS'acc'
p9224
aa(lp9225
S'vhigh'
p9226
aS'med'
p9227
aS'5more'
p9228
ag6
aS'small'
p9229
aS'high'
p9230
aS'acc'
p9231
aa(lp9232
S'vhigh'
p9233
aS'med'
p9234
aS'5more'
p9235
ag6
aS'med'
p9236
aS'med'
p9237
aS'acc'
p9238
aa(lp9239
S'vhigh'
p9240
aS'med'
p9241
aS'5more'
p9242
ag6
aS'med'
p9243
aS'high'
p9244
aS'acc'
p9245
aa(lp9246
S'vhigh'
p9247
aS'med'
p9248
aS'5more'
p9249
ag6
aS'big'
p9250
aS'med'
p9251
aS'acc'
p9252
aa(lp9253
S'vhigh'
p9254
aS'med'
p9255
aS'5more'
p9256
ag6
aS'big'
p9257
aS'high'
p9258
aS'acc'
p9259
aa(lp9260
S'vhigh'
p9261
aS'med'
p9262
aS'5more'
p9263
aS'more'
p9264
aS'small'
p9265
aS'high'
p9266
aS'acc'
p9267
aa(lp9268
S'vhigh'
p9269
aS'med'
p9270
aS'5more'
p9271
aS'more'
p9272
aS'med'
p9273
aS'med'
p9274
aS'acc'
p9275
aa(lp9276
S'vhigh'
p9277
aS'med'
p9278
aS'5more'
p9279
aS'more'
p9280
aS'med'
p9281
aS'high'
p9282
aS'acc'
p9283
aa(lp9284
S'vhigh'
p9285
aS'med'
p9286
aS'5more'
p9287
aS'more'
p9288
aS'big'
p9289
aS'med'
p9290
aS'acc'
p9291
aa(lp9292
S'vhigh'
p9293
aS'med'
p9294
aS'5more'
p9295
aS'more'
p9296
aS'big'
p9297
aS'high'
p9298
aS'acc'
p9299
aa(lp9300
S'vhigh'
p9301
aS'low'
p9302
ag42
ag6
aS'small'
p9303
aS'high'
p9304
aS'acc'
p9305
aa(lp9306
S'vhigh'
p9307
aS'low'
p9308
ag42
ag6
aS'med'
p9309
aS'high'
p9310
aS'acc'
p9311
aa(lp9312
S'vhigh'
p9313
aS'low'
p9314
ag42
ag6
aS'big'
p9315
aS'med'
p9316
aS'acc'
p9317
aa(lp9318
S'vhigh'
p9319
aS'low'
p9320
ag42
ag6
aS'big'
p9321
aS'high'
p9322
aS'acc'
p9323
aa(lp9324
S'vhigh'
p9325
aS'low'
p9326
ag42
aS'more'
p9327
aS'med'
p9328
aS'high'
p9329
aS'acc'
p9330
aa(lp9331
S'vhigh'
p9332
aS'low'
p9333
ag42
aS'more'
p9334
aS'big'
p9335
aS'med'
p9336
aS'acc'
p9337
aa(lp9338
S'vhigh'
p9339
aS'low'
p9340
ag42
aS'more'
p9341
aS'big'
p9342
aS'high'
p9343
aS'acc'
p9344
aa(lp9345
S'vhigh'
p9346
aS'low'
p9347
ag272
ag6
aS'small'
p9348
aS'high'
p9349
aS'acc'
p9350
aa(lp9351
S'vhigh'
p9352
aS'low'
p9353
ag272
ag6
aS'med'
p9354
aS'high'
p9355
aS'acc'
p9356
aa(lp9357
S'vhigh'
p9358
aS'low'
p9359
ag272
ag6
aS'big'
p9360
aS'med'
p9361
aS'acc'
p9362
aa(lp9363
S'vhigh'
p9364
aS'low'
p9365
ag272
ag6
aS'big'
p9366
aS'high'
p9367
aS'acc'
p9368
aa(lp9369
S'vhigh'
p9370
aS'low'
p9371
ag272
aS'more'
p9372
aS'small'
p9373
aS'high'
p9374
aS'acc'
p9375
aa(lp9376
S'vhigh'
p9377
aS'low'
p9378
ag272
aS'more'
p9379
aS'med'
p9380
aS'med'
p9381
aS'acc'
p9382
aa(lp9383
S'vhigh'
p9384
aS'low'
p9385
ag272
aS'more'
p9386
aS'med'
p9387
aS'high'
p9388
aS'acc'
p9389
aa(lp9390
S'vhigh'
p9391
aS'low'
p9392
ag272
aS'more'
p9393
aS'big'
p9394
aS'med'
p9395
aS'acc'
p9396
aa(lp9397
S'vhigh'
p9398
aS'low'
p9399
ag272
aS'more'
p9400
aS'big'
p9401
aS'high'
p9402
aS'acc'
p9403
aa(lp9404
S'vhigh'
p9405
aS'low'
p9406
ag6
ag6
aS'small'
p9407
aS'high'
p9408
aS'acc'
p9409
aa(lp9410
S'vhigh'
p9411
aS'low'
p9412
ag6
ag6
aS'med'
p9413
aS'med'
p9414
aS'acc'
p9415
aa(lp9416
S'vhigh'
p9417
aS'low'
p9418
ag6
ag6
aS'med'
p9419
aS'high'
p9420
aS'acc'
p9421
aa(lp9422
S'vhigh'
p9423
aS'low'
p9424
ag6
ag6
aS'big'
p9425
aS'med'
p9426
aS'acc'
p9427
aa(lp9428
S'vhigh'
p9429
aS'low'
p9430
ag6
ag6
aS'big'
p9431
aS'high'
p9432
aS'acc'
p9433
aa(lp9434
S'vhigh'
p9435
aS'low'
p9436
ag6
aS'more'
p9437
aS'small'
p9438
aS'high'
p9439
aS'acc'
p9440
aa(lp9441
S'vhigh'
p9442
aS'low'
p9443
ag6
aS'more'
p9444
aS'med'
p9445
aS'med'
p9446
aS'acc'
p9447
aa(lp9448
S'vhigh'
p9449
aS'low'
p9450
ag6
aS'more'
p9451
aS'med'
p9452
aS'high'
p9453
aS'acc'
p9454
aa(lp9455
S'vhigh'
p9456
aS'low'
p9457
ag6
aS'more'
p9458
aS'big'
p9459
aS'med'
p9460
aS'acc'
p9461
aa(lp9462
S'vhigh'
p9463
aS'low'
p9464
ag6
aS'more'
p9465
aS'big'
p9466
aS'high'
p9467
aS'acc'
p9468
aa(lp9469
S'vhigh'
p9470
aS'low'
p9471
aS'5more'
p9472
ag6
aS'small'
p9473
aS'high'
p9474
aS'acc'
p9475
aa(lp9476
S'vhigh'
p9477
aS'low'
p9478
aS'5more'
p9479
ag6
aS'med'
p9480
aS'med'
p9481
aS'acc'
p9482
aa(lp9483
S'vhigh'
p9484
aS'low'
p9485
aS'5more'
p9486
ag6
aS'med'
p9487
aS'high'
p9488
aS'acc'
p9489
aa(lp9490
S'vhigh'
p9491
aS'low'
p9492
aS'5more'
p9493
ag6
aS'big'
p9494
aS'med'
p9495
aS'acc'
p9496
aa(lp9497
S'vhigh'
p9498
aS'low'
p9499
aS'5more'
p9500
ag6
aS'big'
p9501
aS'high'
p9502
aS'acc'
p9503
aa(lp9504
S'vhigh'
p9505
aS'low'
p9506
aS'5more'
p9507
aS'more'
p9508
aS'small'
p9509
aS'high'
p9510
aS'acc'
p9511
aa(lp9512
S'vhigh'
p9513
aS'low'
p9514
aS'5more'
p9515
aS'more'
p9516
aS'med'
p9517
aS'med'
p9518
aS'acc'
p9519
aa(lp9520
S'vhigh'
p9521
aS'low'
p9522
aS'5more'
p9523
aS'more'
p9524
aS'med'
p9525
aS'high'
p9526
aS'acc'
p9527
aa(lp9528
S'vhigh'
p9529
aS'low'
p9530
aS'5more'
p9531
aS'more'
p9532
aS'big'
p9533
aS'med'
p9534
aS'acc'
p9535
aa(lp9536
S'vhigh'
p9537
aS'low'
p9538
aS'5more'
p9539
aS'more'
p9540
aS'big'
p9541
aS'high'
p9542
aS'acc'
p9543
aa(lp9544
S'high'
p9545
aS'high'
p9546
ag42
ag6
aS'small'
p9547
aS'high'
p9548
aS'acc'
p9549
aa(lp9550
S'high'
p9551
aS'high'
p9552
ag42
ag6
aS'med'
p9553
aS'high'
p9554
aS'acc'
p9555
aa(lp9556
S'high'
p9557
aS'high'
p9558
ag42
ag6
aS'big'
p9559
aS'med'
p9560
aS'acc'
p9561
aa(lp9562
S'high'
p9563
aS'high'
p9564
ag42
ag6
aS'big'
p9565
aS'high'
p9566
aS'acc'
p9567
aa(lp9568
S'high'
p9569
aS'high'
p9570
ag42
aS'more'
p9571
aS'med'
p9572
aS'high'
p9573
aS'acc'
p9574
aa(lp9575
S'high'
p9576
aS'high'
p9577
ag42
aS'more'
p9578
aS'big'
p9579
aS'med'
p9580
aS'acc'
p9581
aa(lp9582
S'high'
p9583
aS'high'
p9584
ag42
aS'more'
p9585
aS'big'
p9586
aS'high'
p9587
aS'acc'
p9588
aa(lp9589
S'high'
p9590
aS'high'
p9591
ag272
ag6
aS'small'
p9592
aS'high'
p9593
aS'acc'
p9594
aa(lp9595
S'high'
p9596
aS'high'
p9597
ag272
ag6
aS'med'
p9598
aS'high'
p9599
aS'acc'
p9600
aa(lp9601
S'high'
p9602
aS'high'
p9603
ag272
ag6
aS'big'
p9604
aS'med'
p9605
aS'acc'
p9606
aa(lp9607
S'high'
p9608
aS'high'
p9609
ag272
ag6
aS'big'
p9610
aS'high'
p9611
aS'acc'
p9612
aa(lp9613
S'high'
p9614
aS'high'
p9615
ag272
aS'more'
p9616
aS'small'
p9617
aS'high'
p9618
aS'acc'
p9619
aa(lp9620
S'high'
p9621
aS'high'
p9622
ag272
aS'more'
p9623
aS'med'
p9624
aS'med'
p9625
aS'acc'
p9626
aa(lp9627
S'high'
p9628
aS'high'
p9629
ag272
aS'more'
p9630
aS'med'
p9631
aS'high'
p9632
aS'acc'
p9633
aa(lp9634
S'high'
p9635
aS'high'
p9636
ag272
aS'more'
p9637
aS'big'
p9638
aS'med'
p9639
aS'acc'
p9640
aa(lp9641
S'high'
p9642
aS'high'
p9643
ag272
aS'more'
p9644
aS'big'
p9645
aS'high'
p9646
aS'acc'
p9647
aa(lp9648
S'high'
p9649
aS'high'
p9650
ag6
ag6
aS'small'
p9651
aS'high'
p9652
aS'acc'
p9653
aa(lp9654
S'high'
p9655
aS'high'
p9656
ag6
ag6
aS'med'
p9657
aS'med'
p9658
aS'acc'
p9659
aa(lp9660
S'high'
p9661
aS'high'
p9662
ag6
ag6
aS'med'
p9663
aS'high'
p9664
aS'acc'
p9665
aa(lp9666
S'high'
p9667
aS'high'
p9668
ag6
ag6
aS'big'
p9669
aS'med'
p9670
aS'acc'
p9671
aa(lp9672
S'high'
p9673
aS'high'
p9674
ag6
ag6
aS'big'
p9675
aS'high'
p9676
aS'acc'
p9677
aa(lp9678
S'high'
p9679
aS'high'
p9680
ag6
aS'more'
p9681
aS'small'
p9682
aS'high'
p9683
aS'acc'
p9684
aa(lp9685
S'high'
p9686
aS'high'
p9687
ag6
aS'more'
p9688
aS'med'
p9689
aS'med'
p9690
aS'acc'
p9691
aa(lp9692
S'high'
p9693
aS'high'
p9694
ag6
aS'more'
p9695
aS'med'
p9696
aS'high'
p9697
aS'acc'
p9698
aa(lp9699
S'high'
p9700
aS'high'
p9701
ag6
aS'more'
p9702
aS'big'
p9703
aS'med'
p9704
aS'acc'
p9705
aa(lp9706
S'high'
p9707
aS'high'
p9708
ag6
aS'more'
p9709
aS'big'
p9710
aS'high'
p9711
aS'acc'
p9712
aa(lp9713
S'high'
p9714
aS'high'
p9715
aS'5more'
p9716
ag6
aS'small'
p9717
aS'high'
p9718
aS'acc'
p9719
aa(lp9720
S'high'
p9721
aS'high'
p9722
aS'5more'
p9723
ag6
aS'med'
p9724
aS'med'
p9725
aS'acc'
p9726
aa(lp9727
S'high'
p9728
aS'high'
p9729
aS'5more'
p9730
ag6
aS'med'
p9731
aS'high'
p9732
aS'acc'
p9733
aa(lp9734
S'high'
p9735
aS'high'
p9736
aS'5more'
p9737
ag6
aS'big'
p9738
aS'med'
p9739
aS'acc'
p9740
aa(lp9741
S'high'
p9742
aS'high'
p9743
aS'5more'
p9744
ag6
aS'big'
p9745
aS'high'
p9746
aS'acc'
p9747
aa(lp9748
S'high'
p9749
aS'high'
p9750
aS'5more'
p9751
aS'more'
p9752
aS'small'
p9753
aS'high'
p9754
aS'acc'
p9755
aa(lp9756
S'high'
p9757
aS'high'
p9758
aS'5more'
p9759
aS'more'
p9760
aS'med'
p9761
aS'med'
p9762
aS'acc'
p9763
aa(lp9764
S'high'
p9765
aS'high'
p9766
aS'5more'
p9767
aS'more'
p9768
aS'med'
p9769
aS'high'
p9770
aS'acc'
p9771
aa(lp9772
S'high'
p9773
aS'high'
p9774
aS'5more'
p9775
aS'more'
p9776
aS'big'
p9777
aS'med'
p9778
aS'acc'
p9779
aa(lp9780
S'high'
p9781
aS'high'
p9782
aS'5more'
p9783
aS'more'
p9784
aS'big'
p9785
aS'high'
p9786
aS'acc'
p9787
aa(lp9788
S'high'
p9789
aS'med'
p9790
ag42
ag6
aS'small'
p9791
aS'high'
p9792
aS'acc'
p9793
aa(lp9794
S'high'
p9795
aS'med'
p9796
ag42
ag6
aS'med'
p9797
aS'high'
p9798
aS'acc'
p9799
aa(lp9800
S'high'
p9801
aS'med'
p9802
ag42
ag6
aS'big'
p9803
aS'med'
p9804
aS'acc'
p9805
aa(lp9806
S'high'
p9807
aS'med'
p9808
ag42
ag6
aS'big'
p9809
aS'high'
p9810
aS'acc'
p9811
aa(lp9812
S'high'
p9813
aS'med'
p9814
ag42
aS'more'
p9815
aS'med'
p9816
aS'high'
p9817
aS'acc'
p9818
aa(lp9819
S'high'
p9820
aS'med'
p9821
ag42
aS'more'
p9822
aS'big'
p9823
aS'med'
p9824
aS'acc'
p9825
aa(lp9826
S'high'
p9827
aS'med'
p9828
ag42
aS'more'
p9829
aS'big'
p9830
aS'high'
p9831
aS'acc'
p9832
aa(lp9833
S'high'
p9834
aS'med'
p9835
ag272
ag6
aS'small'
p9836
aS'high'
p9837
aS'acc'
p9838
aa(lp9839
S'high'
p9840
aS'med'
p9841
ag272
ag6
aS'med'
p9842
aS'high'
p9843
aS'acc'
p9844
aa(lp9845
S'high'
p9846
aS'med'
p9847
ag272
ag6
aS'big'
p9848
aS'med'
p9849
aS'acc'
p9850
aa(lp9851
S'high'
p9852
aS'med'
p9853
ag272
ag6
aS'big'
p9854
aS'high'
p9855
aS'acc'
p9856
aa(lp9857
S'high'
p9858
aS'med'
p9859
ag272
aS'more'
p9860
aS'small'
p9861
aS'high'
p9862
aS'acc'
p9863
aa(lp9864
S'high'
p9865
aS'med'
p9866
ag272
aS'more'
p9867
aS'med'
p9868
aS'med'
p9869
aS'acc'
p9870
aa(lp9871
S'high'
p9872
aS'med'
p9873
ag272
aS'more'
p9874
aS'med'
p9875
aS'high'
p9876
aS'acc'
p9877
aa(lp9878
S'high'
p9879
aS'med'
p9880
ag272
aS'more'
p9881
aS'big'
p9882
aS'med'
p9883
aS'acc'
p9884
aa(lp9885
S'high'
p9886
aS'med'
p9887
ag272
aS'more'
p9888
aS'big'
p9889
aS'high'
p9890
aS'acc'
p9891
aa(lp9892
S'high'
p9893
aS'med'
p9894
ag6
ag6
aS'small'
p9895
aS'high'
p9896
aS'acc'
p9897
aa(lp9898
S'high'
p9899
aS'med'
p9900
ag6
ag6
aS'med'
p9901
aS'med'
p9902
aS'acc'
p9903
aa(lp9904
S'high'
p9905
aS'med'
p9906
ag6
ag6
aS'med'
p9907
aS'high'
p9908
aS'acc'
p9909
aa(lp9910
S'high'
p9911
aS'med'
p9912
ag6
ag6
aS'big'
p9913
aS'med'
p9914
aS'acc'
p9915
aa(lp9916
S'high'
p9917
aS'med'
p9918
ag6
ag6
aS'big'
p9919
aS'high'
p9920
aS'acc'
p9921
aa(lp9922
S'high'
p9923
aS'med'
p9924
ag6
aS'more'
p9925
aS'small'
p9926
aS'high'
p9927
aS'acc'
p9928
aa(lp9929
S'high'
p9930
aS'med'
p9931
ag6
aS'more'
p9932
aS'med'
p9933
aS'med'
p9934
aS'acc'
p9935
aa(lp9936
S'high'
p9937
aS'med'
p9938
ag6
aS'more'
p9939
aS'med'
p9940
aS'high'
p9941
aS'acc'
p9942
aa(lp9943
S'high'
p9944
aS'med'
p9945
ag6
aS'more'
p9946
aS'big'
p9947
aS'med'
p9948
aS'acc'
p9949
aa(lp9950
S'high'
p9951
aS'med'
p9952
ag6
aS'more'
p9953
aS'big'
p9954
aS'high'
p9955
aS'acc'
p9956
aa(lp9957
S'high'
p9958
aS'med'
p9959
aS'5more'
p9960
ag6
aS'small'
p9961
aS'high'
p9962
aS'acc'
p9963
aa(lp9964
S'high'
p9965
aS'med'
p9966
aS'5more'
p9967
ag6
aS'med'
p9968
aS'med'
p9969
aS'acc'
p9970
aa(lp9971
S'high'
p9972
aS'med'
p9973
aS'5more'
p9974
ag6
aS'med'
p9975
aS'high'
p9976
aS'acc'
p9977
aa(lp9978
S'high'
p9979
aS'med'
p9980
aS'5more'
p9981
ag6
aS'big'
p9982
aS'med'
p9983
aS'acc'
p9984
aa(lp9985
S'high'
p9986
aS'med'
p9987
aS'5more'
p9988
ag6
aS'big'
p9989
aS'high'
p9990
aS'acc'
p9991
aa(lp9992
S'high'
p9993
aS'med'
p9994
aS'5more'
p9995
aS'more'
p9996
aS'small'
p9997
aS'high'
p9998
aS'acc'
p9999
aa(lp10000
S'high'
p10001
aS'med'
p10002
aS'5more'
p10003
aS'more'
p10004
aS'med'
p10005
aS'med'
p10006
aS'acc'
p10007
aa(lp10008
S'high'
p10009
aS'med'
p10010
aS'5more'
p10011
aS'more'
p10012
aS'med'
p10013
aS'high'
p10014
aS'acc'
p10015
aa(lp10016
S'high'
p10017
aS'med'
p10018
aS'5more'
p10019
aS'more'
p10020
aS'big'
p10021
aS'med'
p10022
aS'acc'
p10023
aa(lp10024
S'high'
p10025
aS'med'
p10026
aS'5more'
p10027
aS'more'
p10028
aS'big'
p10029
aS'high'
p10030
aS'acc'
p10031
aa(lp10032
S'high'
p10033
aS'low'
p10034
ag42
ag6
aS'small'
p10035
aS'high'
p10036
aS'acc'
p10037
aa(lp10038
S'high'
p10039
aS'low'
p10040
ag42
ag6
aS'med'
p10041
aS'high'
p10042
aS'acc'
p10043
aa(lp10044
S'high'
p10045
aS'low'
p10046
ag42
ag6
aS'big'
p10047
aS'med'
p10048
aS'acc'
p10049
aa(lp10050
S'high'
p10051
aS'low'
p10052
ag42
ag6
aS'big'
p10053
aS'high'
p10054
aS'acc'
p10055
aa(lp10056
S'high'
p10057
aS'low'
p10058
ag42
aS'more'
p10059
aS'med'
p10060
aS'high'
p10061
aS'acc'
p10062
aa(lp10063
S'high'
p10064
aS'low'
p10065
ag42
aS'more'
p10066
aS'big'
p10067
aS'med'
p10068
aS'acc'
p10069
aa(lp10070
S'high'
p10071
aS'low'
p10072
ag42
aS'more'
p10073
aS'big'
p10074
aS'high'
p10075
aS'acc'
p10076
aa(lp10077
S'high'
p10078
aS'low'
p10079
ag272
ag6
aS'small'
p10080
aS'high'
p10081
aS'acc'
p10082
aa(lp10083
S'high'
p10084
aS'low'
p10085
ag272
ag6
aS'med'
p10086
aS'high'
p10087
aS'acc'
p10088
aa(lp10089
S'high'
p10090
aS'low'
p10091
ag272
ag6
aS'big'
p10092
aS'med'
p10093
aS'acc'
p10094
aa(lp10095
S'high'
p10096
aS'low'
p10097
ag272
ag6
aS'big'
p10098
aS'high'
p10099
aS'acc'
p10100
aa(lp10101
S'high'
p10102
aS'low'
p10103
ag272
aS'more'
p10104
aS'small'
p10105
aS'high'
p10106
aS'acc'
p10107
aa(lp10108
S'high'
p10109
aS'low'
p10110
ag272
aS'more'
p10111
aS'med'
p10112
aS'med'
p10113
aS'acc'
p10114
aa(lp10115
S'high'
p10116
aS'low'
p10117
ag272
aS'more'
p10118
aS'med'
p10119
aS'high'
p10120
aS'acc'
p10121
aa(lp10122
S'high'
p10123
aS'low'
p10124
ag272
aS'more'
p10125
aS'big'
p10126
aS'med'
p10127
aS'acc'
p10128
aa(lp10129
S'high'
p10130
aS'low'
p10131
ag272
aS'more'
p10132
aS'big'
p10133
aS'high'
p10134
aS'acc'
p10135
aa(lp10136
S'high'
p10137
aS'low'
p10138
ag6
ag6
aS'small'
p10139
aS'high'
p10140
aS'acc'
p10141
aa(lp10142
S'high'
p10143
aS'low'
p10144
ag6
ag6
aS'med'
p10145
aS'med'
p10146
aS'acc'
p10147
aa(lp10148
S'high'
p10149
aS'low'
p10150
ag6
ag6
aS'med'
p10151
aS'high'
p10152
aS'acc'
p10153
aa(lp10154
S'high'
p10155
aS'low'
p10156
ag6
ag6
aS'big'
p10157
aS'med'
p10158
aS'acc'
p10159
aa(lp10160
S'high'
p10161
aS'low'
p10162
ag6
ag6
aS'big'
p10163
aS'high'
p10164
aS'acc'
p10165
aa(lp10166
S'high'
p10167
aS'low'
p10168
ag6
aS'more'
p10169
aS'small'
p10170
aS'high'
p10171
aS'acc'
p10172
aa(lp10173
S'high'
p10174
aS'low'
p10175
ag6
aS'more'
p10176
aS'med'
p10177
aS'med'
p10178
aS'acc'
p10179
aa(lp10180
S'high'
p10181
aS'low'
p10182
ag6
aS'more'
p10183
aS'med'
p10184
aS'high'
p10185
aS'acc'
p10186
aa(lp10187
S'high'
p10188
aS'low'
p10189
ag6
aS'more'
p10190
aS'big'
p10191
aS'med'
p10192
aS'acc'
p10193
aa(lp10194
S'high'
p10195
aS'low'
p10196
ag6
aS'more'
p10197
aS'big'
p10198
aS'high'
p10199
aS'acc'
p10200
aa(lp10201
S'high'
p10202
aS'low'
p10203
aS'5more'
p10204
ag6
aS'small'
p10205
aS'high'
p10206
aS'acc'
p10207
aa(lp10208
S'high'
p10209
aS'low'
p10210
aS'5more'
p10211
ag6
aS'med'
p10212
aS'med'
p10213
aS'acc'
p10214
aa(lp10215
S'high'
p10216
aS'low'
p10217
aS'5more'
p10218
ag6
aS'med'
p10219
aS'high'
p10220
aS'acc'
p10221
aa(lp10222
S'high'
p10223
aS'low'
p10224
aS'5more'
p10225
ag6
aS'big'
p10226
aS'med'
p10227
aS'acc'
p10228
aa(lp10229
S'high'
p10230
aS'low'
p10231
aS'5more'
p10232
ag6
aS'big'
p10233
aS'high'
p10234
aS'acc'
p10235
aa(lp10236
S'high'
p10237
aS'low'
p10238
aS'5more'
p10239
aS'more'
p10240
aS'small'
p10241
aS'high'
p10242
aS'acc'
p10243
aa(lp10244
S'high'
p10245
aS'low'
p10246
aS'5more'
p10247
aS'more'
p10248
aS'med'
p10249
aS'med'
p10250
aS'acc'
p10251
aa(lp10252
S'high'
p10253
aS'low'
p10254
aS'5more'
p10255
aS'more'
p10256
aS'med'
p10257
aS'high'
p10258
aS'acc'
p10259
aa(lp10260
S'high'
p10261
aS'low'
p10262
aS'5more'
p10263
aS'more'
p10264
aS'big'
p10265
aS'med'
p10266
aS'acc'
p10267
aa(lp10268
S'high'
p10269
aS'low'
p10270
aS'5more'
p10271
aS'more'
p10272
aS'big'
p10273
aS'high'
p10274
aS'acc'
p10275
aa(lp10276
S'med'
p10277
aS'vhigh'
p10278
ag42
ag6
aS'small'
p10279
aS'high'
p10280
aS'acc'
p10281
aa(lp10282
S'med'
p10283
aS'vhigh'
p10284
ag42
ag6
aS'med'
p10285
aS'high'
p10286
aS'acc'
p10287
aa(lp10288
S'med'
p10289
aS'vhigh'
p10290
ag42
ag6
aS'big'
p10291
aS'med'
p10292
aS'acc'
p10293
aa(lp10294
S'med'
p10295
aS'vhigh'
p10296
ag42
ag6
aS'big'
p10297
aS'high'
p10298
aS'acc'
p10299
aa(lp10300
S'med'
p10301
aS'vhigh'
p10302
ag42
aS'more'
p10303
aS'med'
p10304
aS'high'
p10305
aS'acc'
p10306
aa(lp10307
S'med'
p10308
aS'vhigh'
p10309
ag42
aS'more'
p10310
aS'big'
p10311
aS'med'
p10312
aS'acc'
p10313
aa(lp10314
S'med'
p10315
aS'vhigh'
p10316
ag42
aS'more'
p10317
aS'big'
p10318
aS'high'
p10319
aS'acc'
p10320
aa(lp10321
S'med'
p10322
aS'vhigh'
p10323
ag272
ag6
aS'small'
p10324
aS'high'
p10325
aS'acc'
p10326
aa(lp10327
S'med'
p10328
aS'vhigh'
p10329
ag272
ag6
aS'med'
p10330
aS'high'
p10331
aS'acc'
p10332
aa(lp10333
S'med'
p10334
aS'vhigh'
p10335
ag272
ag6
aS'big'
p10336
aS'med'
p10337
aS'acc'
p10338
aa(lp10339
S'med'
p10340
aS'vhigh'
p10341
ag272
ag6
aS'big'
p10342
aS'high'
p10343
aS'acc'
p10344
aa(lp10345
S'med'
p10346
aS'vhigh'
p10347
ag272
aS'more'
p10348
aS'small'
p10349
aS'high'
p10350
aS'acc'
p10351
aa(lp10352
S'med'
p10353
aS'vhigh'
p10354
ag272
aS'more'
p10355
aS'med'
p10356
aS'med'
p10357
aS'acc'
p10358
aa(lp10359
S'med'
p10360
aS'vhigh'
p10361
ag272
aS'more'
p10362
aS'med'
p10363
aS'high'
p10364
aS'acc'
p10365
aa(lp10366
S'med'
p10367
aS'vhigh'
p10368
ag272
aS'more'
p10369
aS'big'
p10370
aS'med'
p10371
aS'acc'
p10372
aa(lp10373
S'med'
p10374
aS'vhigh'
p10375
ag272
aS'more'
p10376
aS'big'
p10377
aS'high'
p10378
aS'acc'
p10379
aa(lp10380
S'med'
p10381
aS'vhigh'
p10382
ag6
ag6
aS'small'
p10383
aS'high'
p10384
aS'acc'
p10385
aa(lp10386
S'med'
p10387
aS'vhigh'
p10388
ag6
ag6
aS'med'
p10389
aS'med'
p10390
aS'acc'
p10391
aa(lp10392
S'med'
p10393
aS'vhigh'
p10394
ag6
ag6
aS'med'
p10395
aS'high'
p10396
aS'acc'
p10397
aa(lp10398
S'med'
p10399
aS'vhigh'
p10400
ag6
ag6
aS'big'
p10401
aS'med'
p10402
aS'acc'
p10403
aa(lp10404
S'med'
p10405
aS'vhigh'
p10406
ag6
ag6
aS'big'
p10407
aS'high'
p10408
aS'acc'
p10409
aa(lp10410
S'med'
p10411
aS'vhigh'
p10412
ag6
aS'more'
p10413
aS'small'
p10414
aS'high'
p10415
aS'acc'
p10416
aa(lp10417
S'med'
p10418
aS'vhigh'
p10419
ag6
aS'more'
p10420
aS'med'
p10421
aS'med'
p10422
aS'acc'
p10423
aa(lp10424
S'med'
p10425
aS'vhigh'
p10426
ag6
aS'more'
p10427
aS'med'
p10428
aS'high'
p10429
aS'acc'
p10430
aa(lp10431
S'med'
p10432
aS'vhigh'
p10433
ag6
aS'more'
p10434
aS'big'
p10435
aS'med'
p10436
aS'acc'
p10437
aa(lp10438
S'med'
p10439
aS'vhigh'
p10440
ag6
aS'more'
p10441
aS'big'
p10442
aS'high'
p10443
aS'acc'
p10444
aa(lp10445
S'med'
p10446
aS'vhigh'
p10447
aS'5more'
p10448
ag6
aS'small'
p10449
aS'high'
p10450
aS'acc'
p10451
aa(lp10452
S'med'
p10453
aS'vhigh'
p10454
aS'5more'
p10455
ag6
aS'med'
p10456
aS'med'
p10457
aS'acc'
p10458
aa(lp10459
S'med'
p10460
aS'vhigh'
p10461
aS'5more'
p10462
ag6
aS'med'
p10463
aS'high'
p10464
aS'acc'
p10465
aa(lp10466
S'med'
p10467
aS'vhigh'
p10468
aS'5more'
p10469
ag6
aS'big'
p10470
aS'med'
p10471
aS'acc'
p10472
aa(lp10473
S'med'
p10474
aS'vhigh'
p10475
aS'5more'
p10476
ag6
aS'big'
p10477
aS'high'
p10478
aS'acc'
p10479
aa(lp10480
S'med'
p10481
aS'vhigh'
p10482
aS'5more'
p10483
aS'more'
p10484
aS'small'
p10485
aS'high'
p10486
aS'acc'
p10487
aa(lp10488
S'med'
p10489
aS'vhigh'
p10490
aS'5more'
p10491
aS'more'
p10492
aS'med'
p10493
aS'med'
p10494
aS'acc'
p10495
aa(lp10496
S'med'
p10497
aS'vhigh'
p10498
aS'5more'
p10499
aS'more'
p10500
aS'med'
p10501
aS'high'
p10502
aS'acc'
p10503
aa(lp10504
S'med'
p10505
aS'vhigh'
p10506
aS'5more'
p10507
aS'more'
p10508
aS'big'
p10509
aS'med'
p10510
aS'acc'
p10511
aa(lp10512
S'med'
p10513
aS'vhigh'
p10514
aS'5more'
p10515
aS'more'
p10516
aS'big'
p10517
aS'high'
p10518
aS'acc'
p10519
aa(lp10520
S'med'
p10521
aS'high'
p10522
ag42
ag6
aS'small'
p10523
aS'high'
p10524
aS'acc'
p10525
aa(lp10526
S'med'
p10527
aS'high'
p10528
ag42
ag6
aS'med'
p10529
aS'high'
p10530
aS'acc'
p10531
aa(lp10532
S'med'
p10533
aS'high'
p10534
ag42
ag6
aS'big'
p10535
aS'med'
p10536
aS'acc'
p10537
aa(lp10538
S'med'
p10539
aS'high'
p10540
ag42
ag6
aS'big'
p10541
aS'high'
p10542
aS'acc'
p10543
aa(lp10544
S'med'
p10545
aS'high'
p10546
ag42
aS'more'
p10547
aS'med'
p10548
aS'high'
p10549
aS'acc'
p10550
aa(lp10551
S'med'
p10552
aS'high'
p10553
ag42
aS'more'
p10554
aS'big'
p10555
aS'med'
p10556
aS'acc'
p10557
aa(lp10558
S'med'
p10559
aS'high'
p10560
ag42
aS'more'
p10561
aS'big'
p10562
aS'high'
p10563
aS'acc'
p10564
aa(lp10565
S'med'
p10566
aS'high'
p10567
ag272
ag6
aS'small'
p10568
aS'high'
p10569
aS'acc'
p10570
aa(lp10571
S'med'
p10572
aS'high'
p10573
ag272
ag6
aS'med'
p10574
aS'high'
p10575
aS'acc'
p10576
aa(lp10577
S'med'
p10578
aS'high'
p10579
ag272
ag6
aS'big'
p10580
aS'med'
p10581
aS'acc'
p10582
aa(lp10583
S'med'
p10584
aS'high'
p10585
ag272
ag6
aS'big'
p10586
aS'high'
p10587
aS'acc'
p10588
aa(lp10589
S'med'
p10590
aS'high'
p10591
ag272
aS'more'
p10592
aS'small'
p10593
aS'high'
p10594
aS'acc'
p10595
aa(lp10596
S'med'
p10597
aS'high'
p10598
ag272
aS'more'
p10599
aS'med'
p10600
aS'med'
p10601
aS'acc'
p10602
aa(lp10603
S'med'
p10604
aS'high'
p10605
ag272
aS'more'
p10606
aS'med'
p10607
aS'high'
p10608
aS'acc'
p10609
aa(lp10610
S'med'
p10611
aS'high'
p10612
ag272
aS'more'
p10613
aS'big'
p10614
aS'med'
p10615
aS'acc'
p10616
aa(lp10617
S'med'
p10618
aS'high'
p10619
ag272
aS'more'
p10620
aS'big'
p10621
aS'high'
p10622
aS'acc'
p10623
aa(lp10624
S'med'
p10625
aS'high'
p10626
ag6
ag6
aS'small'
p10627
aS'high'
p10628
aS'acc'
p10629
aa(lp10630
S'med'
p10631
aS'high'
p10632
ag6
ag6
aS'med'
p10633
aS'med'
p10634
aS'acc'
p10635
aa(lp10636
S'med'
p10637
aS'high'
p10638
ag6
ag6
aS'med'
p10639
aS'high'
p10640
aS'acc'
p10641
aa(lp10642
S'med'
p10643
aS'high'
p10644
ag6
ag6
aS'big'
p10645
aS'med'
p10646
aS'acc'
p10647
aa(lp10648
S'med'
p10649
aS'high'
p10650
ag6
ag6
aS'big'
p10651
aS'high'
p10652
aS'acc'
p10653
aa(lp10654
S'med'
p10655
aS'high'
p10656
ag6
aS'more'
p10657
aS'small'
p10658
aS'high'
p10659
aS'acc'
p10660
aa(lp10661
S'med'
p10662
aS'high'
p10663
ag6
aS'more'
p10664
aS'med'
p10665
aS'med'
p10666
aS'acc'
p10667
aa(lp10668
S'med'
p10669
aS'high'
p10670
ag6
aS'more'
p10671
aS'med'
p10672
aS'high'
p10673
aS'acc'
p10674
aa(lp10675
S'med'
p10676
aS'high'
p10677
ag6
aS'more'
p10678
aS'big'
p10679
aS'med'
p10680
aS'acc'
p10681
aa(lp10682
S'med'
p10683
aS'high'
p10684
ag6
aS'more'
p10685
aS'big'
p10686
aS'high'
p10687
aS'acc'
p10688
aa(lp10689
S'med'
p10690
aS'high'
p10691
aS'5more'
p10692
ag6
aS'small'
p10693
aS'high'
p10694
aS'acc'
p10695
aa(lp10696
S'med'
p10697
aS'high'
p10698
aS'5more'
p10699
ag6
aS'med'
p10700
aS'med'
p10701
aS'acc'
p10702
aa(lp10703
S'med'
p10704
aS'high'
p10705
aS'5more'
p10706
ag6
aS'med'
p10707
aS'high'
p10708
aS'acc'
p10709
aa(lp10710
S'med'
p10711
aS'high'
p10712
aS'5more'
p10713
ag6
aS'big'
p10714
aS'med'
p10715
aS'acc'
p10716
aa(lp10717
S'med'
p10718
aS'high'
p10719
aS'5more'
p10720
ag6
aS'big'
p10721
aS'high'
p10722
aS'acc'
p10723
aa(lp10724
S'med'
p10725
aS'high'
p10726
aS'5more'
p10727
aS'more'
p10728
aS'small'
p10729
aS'high'
p10730
aS'acc'
p10731
aa(lp10732
S'med'
p10733
aS'high'
p10734
aS'5more'
p10735
aS'more'
p10736
aS'med'
p10737
aS'med'
p10738
aS'acc'
p10739
aa(lp10740
S'med'
p10741
aS'high'
p10742
aS'5more'
p10743
aS'more'
p10744
aS'med'
p10745
aS'high'
p10746
aS'acc'
p10747
aa(lp10748
S'med'
p10749
aS'high'
p10750
aS'5more'
p10751
aS'more'
p10752
aS'big'
p10753
aS'med'
p10754
aS'acc'
p10755
aa(lp10756
S'med'
p10757
aS'high'
p10758
aS'5more'
p10759
aS'more'
p10760
aS'big'
p10761
aS'high'
p10762
aS'acc'
p10763
aa(lp10764
S'med'
p10765
aS'med'
p10766
ag42
ag6
aS'small'
p10767
aS'med'
p10768
aS'acc'
p10769
aa(lp10770
S'med'
p10771
aS'med'
p10772
ag42
ag6
aS'small'
p10773
aS'high'
p10774
aS'acc'
p10775
aa(lp10776
S'med'
p10777
aS'med'
p10778
ag42
ag6
aS'med'
p10779
aS'med'
p10780
aS'acc'
p10781
aa(lp10782
S'med'
p10783
aS'med'
p10784
ag42
ag6
aS'med'
p10785
aS'high'
p10786
aS'acc'
p10787
aa(lp10788
S'med'
p10789
aS'med'
p10790
ag42
ag6
aS'big'
p10791
aS'high'
p10792
aS'vgood'
p10793
aa(lp10794
S'med'
p10795
aS'med'
p10796
ag42
aS'more'
p10797
aS'big'
p10798
aS'high'
p10799
aS'vgood'
p10800
aa(lp10801
S'med'
p10802
aS'med'
p10803
ag272
ag6
aS'big'
p10804
aS'high'
p10805
aS'vgood'
p10806
aa(lp10807
S'med'
p10808
aS'med'
p10809
ag272
aS'more'
p10810
aS'med'
p10811
aS'high'
p10812
aS'vgood'
p10813
aa(lp10814
S'med'
p10815
aS'med'
p10816
ag272
aS'more'
p10817
aS'big'
p10818
aS'high'
p10819
aS'vgood'
p10820
aa(lp10821
S'med'
p10822
aS'med'
p10823
ag6
ag6
aS'med'
p10824
aS'high'
p10825
aS'vgood'
p10826
aa(lp10827
S'med'
p10828
aS'med'
p10829
ag6
ag6
aS'big'
p10830
aS'high'
p10831
aS'vgood'
p10832
aa(lp10833
S'med'
p10834
aS'med'
p10835
ag6
aS'more'
p10836
aS'med'
p10837
aS'high'
p10838
aS'vgood'
p10839
aa(lp10840
S'med'
p10841
aS'med'
p10842
ag6
aS'more'
p10843
aS'big'
p10844
aS'high'
p10845
aS'vgood'
p10846
aa(lp10847
S'med'
p10848
aS'med'
p10849
aS'5more'
p10850
ag6
aS'med'
p10851
aS'high'
p10852
aS'vgood'
p10853
aa(lp10854
S'med'
p10855
aS'med'
p10856
aS'5more'
p10857
ag6
aS'big'
p10858
aS'high'
p10859
aS'vgood'
p10860
aa(lp10861
S'med'
p10862
aS'med'
p10863
aS'5more'
p10864
aS'more'
p10865
aS'med'
p10866
aS'high'
p10867
aS'vgood'
p10868
aa(lp10869
S'med'
p10870
aS'med'
p10871
aS'5more'
p10872
aS'more'
p10873
aS'big'
p10874
aS'high'
p10875
aS'vgood'
p10876
aa(lp10877
S'med'
p10878
aS'low'
p10879
ag42
ag6
aS'big'
p10880
aS'high'
p10881
aS'vgood'
p10882
aa(lp10883
S'med'
p10884
aS'low'
p10885
ag42
aS'more'
p10886
aS'big'
p10887
aS'high'
p10888
aS'vgood'
p10889
aa(lp10890
S'med'
p10891
aS'low'
p10892
ag272
ag6
aS'big'
p10893
aS'high'
p10894
aS'vgood'
p10895
aa(lp10896
S'med'
p10897
aS'low'
p10898
ag272
aS'more'
p10899
aS'med'
p10900
aS'high'
p10901
aS'vgood'
p10902
aa(lp10903
S'med'
p10904
aS'low'
p10905
ag272
aS'more'
p10906
aS'big'
p10907
aS'high'
p10908
aS'vgood'
p10909
aa(lp10910
S'med'
p10911
aS'low'
p10912
ag6
ag6
aS'med'
p10913
aS'high'
p10914
aS'vgood'
p10915
aa(lp10916
S'med'
p10917
aS'low'
p10918
ag6
ag6
aS'big'
p10919
aS'high'
p10920
aS'vgood'
p10921
aa(lp10922
S'med'
p10923
aS'low'
p10924
ag6
aS'more'
p10925
aS'med'
p10926
aS'high'
p10927
aS'vgood'
p10928
aa(lp10929
S'med'
p10930
aS'low'
p10931
ag6
aS'more'
p10932
aS'big'
p10933
aS'high'
p10934
aS'vgood'
p10935
aa(lp10936
S'med'
p10937
aS'low'
p10938
aS'5more'
p10939
ag6
aS'med'
p10940
aS'high'
p10941
aS'vgood'
p10942
aa(lp10943
S'med'
p10944
aS'low'
p10945
aS'5more'
p10946
ag6
aS'big'
p10947
aS'high'
p10948
aS'vgood'
p10949
aa(lp10950
S'med'
p10951
aS'low'
p10952
aS'5more'
p10953
aS'more'
p10954
aS'med'
p10955
aS'high'
p10956
aS'vgood'
p10957
aa(lp10958
S'med'
p10959
aS'low'
p10960
aS'5more'
p10961
aS'more'
p10962
aS'big'
p10963
aS'high'
p10964
aS'vgood'
p10965
aa(lp10966
S'low'
p10967
aS'high'
p10968
ag42
ag6
aS'big'
p10969
aS'high'
p10970
aS'vgood'
p10971
aa(lp10972
S'low'
p10973
aS'high'
p10974
ag42
aS'more'
p10975
aS'big'
p10976
aS'high'
p10977
aS'vgood'
p10978
aa(lp10979
S'low'
p10980
aS'high'
p10981
ag272
ag6
aS'big'
p10982
aS'high'
p10983
aS'vgood'
p10984
aa(lp10985
S'low'
p10986
aS'high'
p10987
ag272
aS'more'
p10988
aS'med'
p10989
aS'high'
p10990
aS'vgood'
p10991
aa(lp10992
S'low'
p10993
aS'high'
p10994
ag272
aS'more'
p10995
aS'big'
p10996
aS'high'
p10997
aS'vgood'
p10998
aa(lp10999
S'low'
p11000
aS'high'
p11001
ag6
ag6
aS'med'
p11002
aS'high'
p11003
aS'vgood'
p11004
aa(lp11005
S'low'
p11006
aS'high'
p11007
ag6
ag6
aS'big'
p11008
aS'high'
p11009
aS'vgood'
p11010
aa(lp11011
S'low'
p11012
aS'high'
p11013
ag6
aS'more'
p11014
aS'med'
p11015
aS'high'
p11016
aS'vgood'
p11017
aa(lp11018
S'low'
p11019
aS'high'
p11020
ag6
aS'more'
p11021
aS'big'
p11022
aS'high'
p11023
aS'vgood'
p11024
aa(lp11025
S'low'
p11026
aS'high'
p11027
aS'5more'
p11028
ag6
aS'med'
p11029
aS'high'
p11030
aS'vgood'
p11031
aa(lp11032
S'low'
p11033
aS'high'
p11034
aS'5more'
p11035
ag6
aS'big'
p11036
aS'high'
p11037
aS'vgood'
p11038
aa(lp11039
S'low'
p11040
aS'high'
p11041
aS'5more'
p11042
aS'more'
p11043
aS'med'
p11044
aS'high'
p11045
aS'vgood'
p11046
aa(lp11047
S'low'
p11048
aS'high'
p11049
aS'5more'
p11050
aS'more'
p11051
aS'big'
p11052
aS'high'
p11053
aS'vgood'
p11054
aa(lp11055
S'low'
p11056
aS'med'
p11057
ag42
ag6
aS'big'
p11058
aS'high'
p11059
aS'vgood'
p11060
aa(lp11061
S'low'
p11062
aS'med'
p11063
ag42
aS'more'
p11064
aS'big'
p11065
aS'high'
p11066
aS'vgood'
p11067
aa(lp11068
S'low'
p11069
aS'med'
p11070
ag272
ag6
aS'big'
p11071
aS'high'
p11072
aS'vgood'
p11073
aa(lp11074
S'med'
p11075
aS'low'
p11076
ag42
ag6
aS'small'
p11077
aS'high'
p11078
aS'good'
p11079
aa(lp11080
S'med'
p11081
aS'low'
p11082
ag42
ag6
aS'med'
p11083
aS'high'
p11084
aS'good'
p11085
aa(lp11086
S'med'
p11087
aS'low'
p11088
ag42
ag6
aS'big'
p11089
aS'med'
p11090
aS'good'
p11091
aa(lp11092
S'med'
p11093
aS'low'
p11094
ag42
aS'more'
p11095
aS'med'
p11096
aS'high'
p11097
aS'good'
p11098
aa(lp11099
S'med'
p11100
aS'low'
p11101
ag42
aS'more'
p11102
aS'big'
p11103
aS'med'
p11104
aS'good'
p11105
aa(lp11106
S'med'
p11107
aS'low'
p11108
ag272
ag6
aS'small'
p11109
aS'high'
p11110
aS'good'
p11111
aa(lp11112
S'med'
p11113
aS'low'
p11114
ag272
ag6
aS'med'
p11115
aS'high'
p11116
aS'good'
p11117
aa(lp11118
S'med'
p11119
aS'low'
p11120
ag272
ag6
aS'big'
p11121
aS'med'
p11122
aS'good'
p11123
aa(lp11124
S'med'
p11125
aS'low'
p11126
ag272
aS'more'
p11127
aS'small'
p11128
aS'high'
p11129
aS'good'
p11130
aa(lp11131
S'med'
p11132
aS'low'
p11133
ag272
aS'more'
p11134
aS'med'
p11135
aS'med'
p11136
aS'good'
p11137
aa(lp11138
S'med'
p11139
aS'low'
p11140
ag272
aS'more'
p11141
aS'big'
p11142
aS'med'
p11143
aS'good'
p11144
aa(lp11145
S'med'
p11146
aS'low'
p11147
ag6
ag6
aS'small'
p11148
aS'high'
p11149
aS'good'
p11150
aa(lp11151
S'med'
p11152
aS'low'
p11153
ag6
ag6
aS'med'
p11154
aS'med'
p11155
aS'good'
p11156
aa(lp11157
S'med'
p11158
aS'low'
p11159
ag6
ag6
aS'big'
p11160
aS'med'
p11161
aS'good'
p11162
aa(lp11163
S'med'
p11164
aS'low'
p11165
ag6
aS'more'
p11166
aS'small'
p11167
aS'high'
p11168
aS'good'
p11169
aa(lp11170
S'med'
p11171
aS'low'
p11172
ag6
aS'more'
p11173
aS'med'
p11174
aS'med'
p11175
aS'good'
p11176
aa(lp11177
S'med'
p11178
aS'low'
p11179
ag6
aS'more'
p11180
aS'big'
p11181
aS'med'
p11182
aS'good'
p11183
aa(lp11184
S'med'
p11185
aS'low'
p11186
aS'5more'
p11187
ag6
aS'small'
p11188
aS'high'
p11189
aS'good'
p11190
aa(lp11191
S'med'
p11192
aS'low'
p11193
aS'5more'
p11194
ag6
aS'med'
p11195
aS'med'
p11196
aS'good'
p11197
aa(lp11198
S'med'
p11199
aS'low'
p11200
aS'5more'
p11201
ag6
aS'big'
p11202
aS'med'
p11203
aS'good'
p11204
aa(lp11205
S'med'
p11206
aS'low'
p11207
aS'5more'
p11208
aS'more'
p11209
aS'small'
p11210
aS'high'
p11211
aS'good'
p11212
aa(lp11213
S'med'
p11214
aS'low'
p11215
aS'5more'
p11216
aS'more'
p11217
aS'med'
p11218
aS'med'
p11219
aS'good'
p11220
aa(lp11221
S'med'
p11222
aS'low'
p11223
aS'5more'
p11224
aS'more'
p11225
aS'big'
p11226
aS'med'
p11227
aS'good'
p11228
aa(lp11229
S'low'
p11230
aS'med'
p11231
ag42
ag6
aS'small'
p11232
aS'high'
p11233
aS'good'
p11234
aa(lp11235
S'low'
p11236
aS'med'
p11237
ag42
ag6
aS'med'
p11238
aS'high'
p11239
aS'good'
p11240
aa(lp11241
S'low'
p11242
aS'med'
p11243
ag42
ag6
aS'big'
p11244
aS'med'
p11245
aS'good'
p11246
aa(lp11247
S'low'
p11248
aS'med'
p11249
ag42
aS'more'
p11250
aS'med'
p11251
aS'high'
p11252
aS'good'
p11253
aa(lp11254
S'low'
p11255
aS'med'
p11256
ag42
aS'more'
p11257
aS'big'
p11258
aS'med'
p11259
aS'good'
p11260
aa(lp11261
S'low'
p11262
aS'med'
p11263
ag272
ag6
aS'small'
p11264
aS'high'
p11265
aS'good'
p11266
aa(lp11267
S'low'
p11268
aS'med'
p11269
ag272
ag6
aS'med'
p11270
aS'high'
p11271
aS'good'
p11272
aa(lp11273
S'low'
p11274
aS'med'
p11275
ag272
ag6
aS'big'
p11276
aS'med'
p11277
aS'good'
p11278
aa(lp11279
S'low'
p11280
aS'med'
p11281
ag272
aS'more'
p11282
aS'small'
p11283
aS'high'
p11284
aS'good'
p11285
aa(lp11286
S'low'
p11287
aS'med'
p11288
ag272
aS'more'
p11289
aS'med'
p11290
aS'med'
p11291
aS'good'
p11292
aa(lp11293
S'low'
p11294
aS'med'
p11295
ag272
aS'more'
p11296
aS'big'
p11297
aS'med'
p11298
aS'good'
p11299
aa(lp11300
S'low'
p11301
aS'med'
p11302
ag6
ag6
aS'small'
p11303
aS'high'
p11304
aS'good'
p11305
aa(lp11306
S'low'
p11307
aS'med'
p11308
ag6
ag6
aS'med'
p11309
aS'med'
p11310
aS'good'
p11311
aa(lp11312
S'low'
p11313
aS'med'
p11314
ag6
ag6
aS'big'
p11315
aS'med'
p11316
aS'good'
p11317
aa(lp11318
S'low'
p11319
aS'med'
p11320
ag6
aS'more'
p11321
aS'small'
p11322
aS'high'
p11323
aS'good'
p11324
aa(lp11325
S'low'
p11326
aS'med'
p11327
ag6
aS'more'
p11328
aS'med'
p11329
aS'med'
p11330
aS'good'
p11331
aa(lp11332
S'low'
p11333
aS'med'
p11334
ag6
aS'more'
p11335
aS'big'
p11336
aS'med'
p11337
aS'good'
p11338
aa(lp11339
S'low'
p11340
aS'med'
p11341
aS'5more'
p11342
ag6
aS'small'
p11343
aS'high'
p11344
aS'good'
p11345
aa(lp11346
S'low'
p11347
aS'med'
p11348
aS'5more'
p11349
ag6
aS'med'
p11350
aS'med'
p11351
aS'good'
p11352
aa(lp11353
S'low'
p11354
aS'med'
p11355
aS'5more'
p11356
ag6
aS'big'
p11357
aS'med'
p11358
aS'good'
p11359
aa(lp11360
S'low'
p11361
aS'med'
p11362
aS'5more'
p11363
aS'more'
p11364
aS'small'
p11365
aS'high'
p11366
aS'good'
p11367
aa(lp11368
S'low'
p11369
aS'med'
p11370
aS'5more'
p11371
aS'more'
p11372
aS'med'
p11373
aS'med'
p11374
aS'good'
p11375
aa(lp11376
S'low'
p11377
aS'med'
p11378
aS'5more'
p11379
aS'more'
p11380
aS'big'
p11381
aS'med'
p11382
aS'good'
p11383
aas.